
vm-crash3:     file format elf32-tradbigmips

Disassembly of section .text:

00400000 <__start>:
  400000:	3c1c1000 	lui	gp,0x1000
  400004:	279c7ff0 	addiu	gp,gp,32752
  400008:	2408fff8 	li	t0,-8
  40000c:	03a8e824 	and	sp,sp,t0
  400010:	27bdfff0 	addiu	sp,sp,-16
  400014:	3c011000 	lui	at,0x1000
  400018:	ac250004 	sw	a1,4(at)
  40001c:	0c10003a 	jal	4000e8 <main>
  400020:	00000000 	nop
  400024:	00408021 	move	s0,v0
  400028:	0c11d579 	jal	4755e4 <exit>
  40002c:	02002021 	move	a0,s0
  400030:	0c11d589 	jal	475624 <_exit>
  400034:	02002021 	move	a0,s0
  400038:	02002021 	move	a0,s0
  40003c:	24020000 	li	v0,0
  400040:	0000000c 	syscall
  400044:	0810000e 	j	400038 <__start+0x38>
  400048:	00000000 	nop
  40004c:	00000000 	nop

00400050 <write_data>:
  400050:	3c021000 	lui	v0,0x1000
  400054:	24420010 	addiu	v0,v0,16
  400058:	00001821 	move	v1,zero
  40005c:	3c040002 	lui	a0,0x2
  400060:	ac430000 	sw	v1,0(v0)
  400064:	24631000 	addiu	v1,v1,4096
  400068:	1464fffd 	bne	v1,a0,400060 <write_data+0x10>
  40006c:	24424000 	addiu	v0,v0,16384
  400070:	03e00008 	jr	ra
  400074:	00000000 	nop

00400078 <read_data>:
  400078:	27bdffe8 	addiu	sp,sp,-24
  40007c:	3c021000 	lui	v0,0x1000
  400080:	afbf0010 	sw	ra,16(sp)
  400084:	24420010 	addiu	v0,v0,16
  400088:	00002821 	move	a1,zero
  40008c:	3c030002 	lui	v1,0x2
  400090:	8c460000 	lw	a2,0(v0)
  400094:	00000000 	nop
  400098:	14a60008 	bne	a1,a2,4000bc <read_data+0x44>
  40009c:	3c040047 	lui	a0,0x47
  4000a0:	24a51000 	addiu	a1,a1,4096
  4000a4:	14a3fffa 	bne	a1,v1,400090 <read_data+0x18>
  4000a8:	24424000 	addiu	v0,v0,16384
  4000ac:	8fbf0010 	lw	ra,16(sp)
  4000b0:	00000000 	nop
  4000b4:	03e00008 	jr	ra
  4000b8:	27bd0018 	addiu	sp,sp,24
  4000bc:	24846160 	addiu	a0,a0,24928
  4000c0:	0c11d53f 	jal	4754fc <printf>
  4000c4:	00a03821 	move	a3,a1
  4000c8:	0c11d579 	jal	4755e4 <exit>
  4000cc:	24040001 	li	a0,1

004000d0 <write_to_code>:
  4000d0:	3c040047 	lui	a0,0x47
  4000d4:	2403003f 	li	v1,63
  4000d8:	3c020044 	lui	v0,0x44
  4000dc:	24846180 	addiu	a0,a0,24960
  4000e0:	0811d564 	j	475590 <puts>
  4000e4:	ac43a610 	sw	v1,-23024(v0)

004000e8 <main>:
  4000e8:	27bdffe0 	addiu	sp,sp,-32
  4000ec:	afb10014 	sw	s1,20(sp)
  4000f0:	afb00010 	sw	s0,16(sp)
  4000f4:	afbf0018 	sw	ra,24(sp)
  4000f8:	00008021 	move	s0,zero
  4000fc:	24110005 	li	s1,5
  400100:	0c11d2b8 	jal	474ae0 <call_all>
  400104:	26100001 	addiu	s0,s0,1
  400108:	0c100014 	jal	400050 <write_data>
  40010c:	00000000 	nop
  400110:	0c11d2b8 	jal	474ae0 <call_all>
  400114:	00000000 	nop
  400118:	0c10001e 	jal	400078 <read_data>
  40011c:	00000000 	nop
  400120:	1611fff7 	bne	s0,s1,400100 <main+0x18>
  400124:	00000000 	nop
  400128:	0c100034 	jal	4000d0 <write_to_code>
  40012c:	00000000 	nop
  400130:	0c11d579 	jal	4755e4 <exit>
  400134:	00002021 	move	a0,zero
	...

00400140 <func_0>:
  400140:	27bdfff0 	addiu	sp,sp,-16
  400144:	2402000a 	li	v0,10
  400148:	afa20000 	sw	v0,0(sp)
  40014c:	2403000b 	li	v1,11
  400150:	2402000c 	li	v0,12
  400154:	afa30004 	sw	v1,4(sp)
  400158:	00002821 	move	a1,zero
  40015c:	afa20008 	sw	v0,8(sp)
  400160:	24060002 	li	a2,2
  400164:	8fa20000 	lw	v0,0(sp)
  400168:	8fa30004 	lw	v1,4(sp)
  40016c:	8fa40008 	lw	a0,8(sp)
  400170:	00431021 	addu	v0,v0,v1
  400174:	00441023 	subu	v0,v0,a0
  400178:	00451021 	addu	v0,v0,a1
  40017c:	afa20000 	sw	v0,0(sp)
  400180:	8fa30000 	lw	v1,0(sp)
  400184:	8fa20004 	lw	v0,4(sp)
  400188:	8fa40008 	lw	a0,8(sp)
  40018c:	00621821 	addu	v1,v1,v0
  400190:	00641823 	subu	v1,v1,a0
  400194:	00651821 	addu	v1,v1,a1
  400198:	afa30004 	sw	v1,4(sp)
  40019c:	8fa20000 	lw	v0,0(sp)
  4001a0:	8fa30004 	lw	v1,4(sp)
  4001a4:	8fa40008 	lw	a0,8(sp)
  4001a8:	00431021 	addu	v0,v0,v1
  4001ac:	00441023 	subu	v0,v0,a0
  4001b0:	00451021 	addu	v0,v0,a1
  4001b4:	afa20008 	sw	v0,8(sp)
  4001b8:	8fa30000 	lw	v1,0(sp)
  4001bc:	8fa20004 	lw	v0,4(sp)
  4001c0:	8fa40008 	lw	a0,8(sp)
  4001c4:	00621821 	addu	v1,v1,v0
  4001c8:	00641823 	subu	v1,v1,a0
  4001cc:	00651821 	addu	v1,v1,a1
  4001d0:	afa30000 	sw	v1,0(sp)
  4001d4:	8fa20000 	lw	v0,0(sp)
  4001d8:	8fa30004 	lw	v1,4(sp)
  4001dc:	8fa40008 	lw	a0,8(sp)
  4001e0:	00431021 	addu	v0,v0,v1
  4001e4:	00441023 	subu	v0,v0,a0
  4001e8:	00451021 	addu	v0,v0,a1
  4001ec:	afa20004 	sw	v0,4(sp)
  4001f0:	8fa30000 	lw	v1,0(sp)
  4001f4:	8fa20004 	lw	v0,4(sp)
  4001f8:	8fa40008 	lw	a0,8(sp)
  4001fc:	00621821 	addu	v1,v1,v0
  400200:	00641823 	subu	v1,v1,a0
  400204:	00651821 	addu	v1,v1,a1
  400208:	afa30008 	sw	v1,8(sp)
  40020c:	8fa20000 	lw	v0,0(sp)
  400210:	8fa30004 	lw	v1,4(sp)
  400214:	8fa40008 	lw	a0,8(sp)
  400218:	00431021 	addu	v0,v0,v1
  40021c:	00441023 	subu	v0,v0,a0
  400220:	00451021 	addu	v0,v0,a1
  400224:	afa20000 	sw	v0,0(sp)
  400228:	8fa30000 	lw	v1,0(sp)
  40022c:	8fa20004 	lw	v0,4(sp)
  400230:	8fa40008 	lw	a0,8(sp)
  400234:	00621821 	addu	v1,v1,v0
  400238:	00641823 	subu	v1,v1,a0
  40023c:	00651821 	addu	v1,v1,a1
  400240:	afa30004 	sw	v1,4(sp)
  400244:	8fa20000 	lw	v0,0(sp)
  400248:	8fa30004 	lw	v1,4(sp)
  40024c:	8fa40008 	lw	a0,8(sp)
  400250:	00431021 	addu	v0,v0,v1
  400254:	00441023 	subu	v0,v0,a0
  400258:	00451021 	addu	v0,v0,a1
  40025c:	afa20008 	sw	v0,8(sp)
  400260:	8fa30000 	lw	v1,0(sp)
  400264:	8fa20004 	lw	v0,4(sp)
  400268:	8fa40008 	lw	a0,8(sp)
  40026c:	00621821 	addu	v1,v1,v0
  400270:	00641823 	subu	v1,v1,a0
  400274:	00651821 	addu	v1,v1,a1
  400278:	afa30000 	sw	v1,0(sp)
  40027c:	8fa20000 	lw	v0,0(sp)
  400280:	8fa30004 	lw	v1,4(sp)
  400284:	8fa40008 	lw	a0,8(sp)
  400288:	00431021 	addu	v0,v0,v1
  40028c:	00441023 	subu	v0,v0,a0
  400290:	00451021 	addu	v0,v0,a1
  400294:	afa20004 	sw	v0,4(sp)
  400298:	8fa30000 	lw	v1,0(sp)
  40029c:	8fa20004 	lw	v0,4(sp)
  4002a0:	8fa40008 	lw	a0,8(sp)
  4002a4:	00621821 	addu	v1,v1,v0
  4002a8:	00641823 	subu	v1,v1,a0
  4002ac:	00651821 	addu	v1,v1,a1
  4002b0:	afa30008 	sw	v1,8(sp)
  4002b4:	8fa20000 	lw	v0,0(sp)
  4002b8:	8fa30004 	lw	v1,4(sp)
  4002bc:	8fa40008 	lw	a0,8(sp)
  4002c0:	00431021 	addu	v0,v0,v1
  4002c4:	00441023 	subu	v0,v0,a0
  4002c8:	00451021 	addu	v0,v0,a1
  4002cc:	afa20000 	sw	v0,0(sp)
  4002d0:	8fa30000 	lw	v1,0(sp)
  4002d4:	8fa20004 	lw	v0,4(sp)
  4002d8:	8fa40008 	lw	a0,8(sp)
  4002dc:	00621821 	addu	v1,v1,v0
  4002e0:	00641823 	subu	v1,v1,a0
  4002e4:	00651821 	addu	v1,v1,a1
  4002e8:	afa30004 	sw	v1,4(sp)
  4002ec:	8fa20000 	lw	v0,0(sp)
  4002f0:	8fa30004 	lw	v1,4(sp)
  4002f4:	8fa40008 	lw	a0,8(sp)
  4002f8:	00431021 	addu	v0,v0,v1
  4002fc:	00441023 	subu	v0,v0,a0
  400300:	00451021 	addu	v0,v0,a1
  400304:	afa20008 	sw	v0,8(sp)
  400308:	8fa30000 	lw	v1,0(sp)
  40030c:	8fa20004 	lw	v0,4(sp)
  400310:	8fa40008 	lw	a0,8(sp)
  400314:	00621821 	addu	v1,v1,v0
  400318:	00641823 	subu	v1,v1,a0
  40031c:	00651821 	addu	v1,v1,a1
  400320:	24a50001 	addiu	a1,a1,1
  400324:	afa30000 	sw	v1,0(sp)
  400328:	14a6ff8e 	bne	a1,a2,400164 <func_0+0x24>
  40032c:	00000000 	nop
  400330:	00002821 	move	a1,zero
  400334:	24060002 	li	a2,2
  400338:	8fa20000 	lw	v0,0(sp)
  40033c:	8fa30004 	lw	v1,4(sp)
  400340:	8fa40008 	lw	a0,8(sp)
  400344:	00431021 	addu	v0,v0,v1
  400348:	00441023 	subu	v0,v0,a0
  40034c:	00451021 	addu	v0,v0,a1
  400350:	afa20004 	sw	v0,4(sp)
  400354:	8fa30000 	lw	v1,0(sp)
  400358:	8fa20004 	lw	v0,4(sp)
  40035c:	8fa40008 	lw	a0,8(sp)
  400360:	00621821 	addu	v1,v1,v0
  400364:	00641823 	subu	v1,v1,a0
  400368:	00651821 	addu	v1,v1,a1
  40036c:	afa30000 	sw	v1,0(sp)
  400370:	8fa20000 	lw	v0,0(sp)
  400374:	8fa30004 	lw	v1,4(sp)
  400378:	8fa40008 	lw	a0,8(sp)
  40037c:	00431021 	addu	v0,v0,v1
  400380:	00441023 	subu	v0,v0,a0
  400384:	00451021 	addu	v0,v0,a1
  400388:	afa20008 	sw	v0,8(sp)
  40038c:	8fa30000 	lw	v1,0(sp)
  400390:	8fa20004 	lw	v0,4(sp)
  400394:	8fa40008 	lw	a0,8(sp)
  400398:	00621821 	addu	v1,v1,v0
  40039c:	00641823 	subu	v1,v1,a0
  4003a0:	00651821 	addu	v1,v1,a1
  4003a4:	afa30004 	sw	v1,4(sp)
  4003a8:	8fa20000 	lw	v0,0(sp)
  4003ac:	8fa30004 	lw	v1,4(sp)
  4003b0:	8fa40008 	lw	a0,8(sp)
  4003b4:	00431021 	addu	v0,v0,v1
  4003b8:	00441023 	subu	v0,v0,a0
  4003bc:	00451021 	addu	v0,v0,a1
  4003c0:	afa20004 	sw	v0,4(sp)
  4003c4:	8fa30000 	lw	v1,0(sp)
  4003c8:	8fa20004 	lw	v0,4(sp)
  4003cc:	8fa40008 	lw	a0,8(sp)
  4003d0:	00621821 	addu	v1,v1,v0
  4003d4:	00641823 	subu	v1,v1,a0
  4003d8:	00651821 	addu	v1,v1,a1
  4003dc:	afa30000 	sw	v1,0(sp)
  4003e0:	8fa20000 	lw	v0,0(sp)
  4003e4:	8fa30004 	lw	v1,4(sp)
  4003e8:	8fa40008 	lw	a0,8(sp)
  4003ec:	00431021 	addu	v0,v0,v1
  4003f0:	00441023 	subu	v0,v0,a0
  4003f4:	00451021 	addu	v0,v0,a1
  4003f8:	afa20008 	sw	v0,8(sp)
  4003fc:	8fa30000 	lw	v1,0(sp)
  400400:	8fa20004 	lw	v0,4(sp)
  400404:	8fa40008 	lw	a0,8(sp)
  400408:	00621821 	addu	v1,v1,v0
  40040c:	00641823 	subu	v1,v1,a0
  400410:	00651821 	addu	v1,v1,a1
  400414:	afa30004 	sw	v1,4(sp)
  400418:	8fa20000 	lw	v0,0(sp)
  40041c:	8fa30004 	lw	v1,4(sp)
  400420:	8fa40008 	lw	a0,8(sp)
  400424:	00431021 	addu	v0,v0,v1
  400428:	00441023 	subu	v0,v0,a0
  40042c:	00451021 	addu	v0,v0,a1
  400430:	afa20000 	sw	v0,0(sp)
  400434:	8fa30000 	lw	v1,0(sp)
  400438:	8fa20004 	lw	v0,4(sp)
  40043c:	8fa40008 	lw	a0,8(sp)
  400440:	00621821 	addu	v1,v1,v0
  400444:	00641823 	subu	v1,v1,a0
  400448:	00651821 	addu	v1,v1,a1
  40044c:	afa30008 	sw	v1,8(sp)
  400450:	8fa20000 	lw	v0,0(sp)
  400454:	8fa30004 	lw	v1,4(sp)
  400458:	8fa40008 	lw	a0,8(sp)
  40045c:	00431021 	addu	v0,v0,v1
  400460:	00441023 	subu	v0,v0,a0
  400464:	00451021 	addu	v0,v0,a1
  400468:	afa20004 	sw	v0,4(sp)
  40046c:	8fa30000 	lw	v1,0(sp)
  400470:	8fa20004 	lw	v0,4(sp)
  400474:	8fa40008 	lw	a0,8(sp)
  400478:	00621821 	addu	v1,v1,v0
  40047c:	00641823 	subu	v1,v1,a0
  400480:	00651821 	addu	v1,v1,a1
  400484:	afa30000 	sw	v1,0(sp)
  400488:	8fa20000 	lw	v0,0(sp)
  40048c:	8fa30004 	lw	v1,4(sp)
  400490:	8fa40008 	lw	a0,8(sp)
  400494:	00431021 	addu	v0,v0,v1
  400498:	00441023 	subu	v0,v0,a0
  40049c:	00451021 	addu	v0,v0,a1
  4004a0:	24a50001 	addiu	a1,a1,1
  4004a4:	afa20008 	sw	v0,8(sp)
  4004a8:	14a6ffa3 	bne	a1,a2,400338 <func_0+0x1f8>
  4004ac:	00000000 	nop
  4004b0:	00002821 	move	a1,zero
  4004b4:	24060002 	li	a2,2
  4004b8:	8fa20000 	lw	v0,0(sp)
  4004bc:	8fa30004 	lw	v1,4(sp)
  4004c0:	8fa40008 	lw	a0,8(sp)
  4004c4:	00431021 	addu	v0,v0,v1
  4004c8:	00441023 	subu	v0,v0,a0
  4004cc:	00451021 	addu	v0,v0,a1
  4004d0:	afa20008 	sw	v0,8(sp)
  4004d4:	8fa30000 	lw	v1,0(sp)
  4004d8:	8fa20004 	lw	v0,4(sp)
  4004dc:	8fa40008 	lw	a0,8(sp)
  4004e0:	00621821 	addu	v1,v1,v0
  4004e4:	00641823 	subu	v1,v1,a0
  4004e8:	00651821 	addu	v1,v1,a1
  4004ec:	afa30004 	sw	v1,4(sp)
  4004f0:	8fa20000 	lw	v0,0(sp)
  4004f4:	8fa30004 	lw	v1,4(sp)
  4004f8:	8fa40008 	lw	a0,8(sp)
  4004fc:	00431021 	addu	v0,v0,v1
  400500:	00441023 	subu	v0,v0,a0
  400504:	00451021 	addu	v0,v0,a1
  400508:	afa20000 	sw	v0,0(sp)
  40050c:	8fa30000 	lw	v1,0(sp)
  400510:	8fa20004 	lw	v0,4(sp)
  400514:	8fa40008 	lw	a0,8(sp)
  400518:	00621821 	addu	v1,v1,v0
  40051c:	00641823 	subu	v1,v1,a0
  400520:	00651821 	addu	v1,v1,a1
  400524:	afa30008 	sw	v1,8(sp)
  400528:	8fa20000 	lw	v0,0(sp)
  40052c:	8fa30004 	lw	v1,4(sp)
  400530:	8fa40008 	lw	a0,8(sp)
  400534:	00431021 	addu	v0,v0,v1
  400538:	00441023 	subu	v0,v0,a0
  40053c:	00451021 	addu	v0,v0,a1
  400540:	afa20004 	sw	v0,4(sp)
  400544:	8fa30000 	lw	v1,0(sp)
  400548:	8fa20004 	lw	v0,4(sp)
  40054c:	8fa40008 	lw	a0,8(sp)
  400550:	00621821 	addu	v1,v1,v0
  400554:	00641823 	subu	v1,v1,a0
  400558:	00651821 	addu	v1,v1,a1
  40055c:	afa30000 	sw	v1,0(sp)
  400560:	8fa20000 	lw	v0,0(sp)
  400564:	8fa30004 	lw	v1,4(sp)
  400568:	8fa40008 	lw	a0,8(sp)
  40056c:	00431021 	addu	v0,v0,v1
  400570:	00441023 	subu	v0,v0,a0
  400574:	00451021 	addu	v0,v0,a1
  400578:	24a50001 	addiu	a1,a1,1
  40057c:	afa20008 	sw	v0,8(sp)
  400580:	14a6ffcd 	bne	a1,a2,4004b8 <func_0+0x378>
  400584:	00000000 	nop
  400588:	00002821 	move	a1,zero
  40058c:	24060002 	li	a2,2
  400590:	8fa20000 	lw	v0,0(sp)
  400594:	8fa30004 	lw	v1,4(sp)
  400598:	8fa40008 	lw	a0,8(sp)
  40059c:	00431021 	addu	v0,v0,v1
  4005a0:	00441023 	subu	v0,v0,a0
  4005a4:	00451021 	addu	v0,v0,a1
  4005a8:	afa20000 	sw	v0,0(sp)
  4005ac:	8fa30000 	lw	v1,0(sp)
  4005b0:	8fa20004 	lw	v0,4(sp)
  4005b4:	8fa40008 	lw	a0,8(sp)
  4005b8:	00621821 	addu	v1,v1,v0
  4005bc:	00641823 	subu	v1,v1,a0
  4005c0:	00651821 	addu	v1,v1,a1
  4005c4:	afa30008 	sw	v1,8(sp)
  4005c8:	8fa20000 	lw	v0,0(sp)
  4005cc:	8fa30004 	lw	v1,4(sp)
  4005d0:	8fa40008 	lw	a0,8(sp)
  4005d4:	00431021 	addu	v0,v0,v1
  4005d8:	00441023 	subu	v0,v0,a0
  4005dc:	00451021 	addu	v0,v0,a1
  4005e0:	afa20004 	sw	v0,4(sp)
  4005e4:	8fa30000 	lw	v1,0(sp)
  4005e8:	8fa20004 	lw	v0,4(sp)
  4005ec:	8fa40008 	lw	a0,8(sp)
  4005f0:	00621821 	addu	v1,v1,v0
  4005f4:	00641823 	subu	v1,v1,a0
  4005f8:	00651821 	addu	v1,v1,a1
  4005fc:	afa30000 	sw	v1,0(sp)
  400600:	8fa20000 	lw	v0,0(sp)
  400604:	8fa30004 	lw	v1,4(sp)
  400608:	8fa40008 	lw	a0,8(sp)
  40060c:	00431021 	addu	v0,v0,v1
  400610:	00441023 	subu	v0,v0,a0
  400614:	00451021 	addu	v0,v0,a1
  400618:	afa20008 	sw	v0,8(sp)
  40061c:	8fa30000 	lw	v1,0(sp)
  400620:	8fa20004 	lw	v0,4(sp)
  400624:	8fa40008 	lw	a0,8(sp)
  400628:	00621821 	addu	v1,v1,v0
  40062c:	00641823 	subu	v1,v1,a0
  400630:	00651821 	addu	v1,v1,a1
  400634:	afa30004 	sw	v1,4(sp)
  400638:	8fa20000 	lw	v0,0(sp)
  40063c:	8fa30004 	lw	v1,4(sp)
  400640:	8fa40008 	lw	a0,8(sp)
  400644:	00431021 	addu	v0,v0,v1
  400648:	00441023 	subu	v0,v0,a0
  40064c:	00451021 	addu	v0,v0,a1
  400650:	afa20000 	sw	v0,0(sp)
  400654:	8fa30000 	lw	v1,0(sp)
  400658:	8fa20004 	lw	v0,4(sp)
  40065c:	8fa40008 	lw	a0,8(sp)
  400660:	00621821 	addu	v1,v1,v0
  400664:	00641823 	subu	v1,v1,a0
  400668:	00651821 	addu	v1,v1,a1
  40066c:	afa30004 	sw	v1,4(sp)
  400670:	8fa20000 	lw	v0,0(sp)
  400674:	8fa30004 	lw	v1,4(sp)
  400678:	8fa40008 	lw	a0,8(sp)
  40067c:	00431021 	addu	v0,v0,v1
  400680:	00441023 	subu	v0,v0,a0
  400684:	00451021 	addu	v0,v0,a1
  400688:	afa20000 	sw	v0,0(sp)
  40068c:	8fa30000 	lw	v1,0(sp)
  400690:	8fa20004 	lw	v0,4(sp)
  400694:	8fa40008 	lw	a0,8(sp)
  400698:	00621821 	addu	v1,v1,v0
  40069c:	00641823 	subu	v1,v1,a0
  4006a0:	00651821 	addu	v1,v1,a1
  4006a4:	afa30008 	sw	v1,8(sp)
  4006a8:	8fa20000 	lw	v0,0(sp)
  4006ac:	8fa30004 	lw	v1,4(sp)
  4006b0:	8fa40008 	lw	a0,8(sp)
  4006b4:	00431021 	addu	v0,v0,v1
  4006b8:	00441023 	subu	v0,v0,a0
  4006bc:	00451021 	addu	v0,v0,a1
  4006c0:	afa20004 	sw	v0,4(sp)
  4006c4:	8fa30000 	lw	v1,0(sp)
  4006c8:	8fa20004 	lw	v0,4(sp)
  4006cc:	8fa40008 	lw	a0,8(sp)
  4006d0:	00621821 	addu	v1,v1,v0
  4006d4:	00641823 	subu	v1,v1,a0
  4006d8:	00651821 	addu	v1,v1,a1
  4006dc:	afa30000 	sw	v1,0(sp)
  4006e0:	8fa20000 	lw	v0,0(sp)
  4006e4:	8fa30004 	lw	v1,4(sp)
  4006e8:	8fa40008 	lw	a0,8(sp)
  4006ec:	00431021 	addu	v0,v0,v1
  4006f0:	00441023 	subu	v0,v0,a0
  4006f4:	00451021 	addu	v0,v0,a1
  4006f8:	afa20008 	sw	v0,8(sp)
  4006fc:	8fa30000 	lw	v1,0(sp)
  400700:	8fa20004 	lw	v0,4(sp)
  400704:	8fa40008 	lw	a0,8(sp)
  400708:	00621821 	addu	v1,v1,v0
  40070c:	00641823 	subu	v1,v1,a0
  400710:	00651821 	addu	v1,v1,a1
  400714:	afa30004 	sw	v1,4(sp)
  400718:	8fa20000 	lw	v0,0(sp)
  40071c:	8fa30004 	lw	v1,4(sp)
  400720:	8fa40008 	lw	a0,8(sp)
  400724:	00431021 	addu	v0,v0,v1
  400728:	00441023 	subu	v0,v0,a0
  40072c:	00451021 	addu	v0,v0,a1
  400730:	afa20000 	sw	v0,0(sp)
  400734:	8fa30000 	lw	v1,0(sp)
  400738:	8fa20004 	lw	v0,4(sp)
  40073c:	8fa40008 	lw	a0,8(sp)
  400740:	00621821 	addu	v1,v1,v0
  400744:	00641823 	subu	v1,v1,a0
  400748:	00651821 	addu	v1,v1,a1
  40074c:	24a50001 	addiu	a1,a1,1
  400750:	afa30004 	sw	v1,4(sp)
  400754:	14a6ff8e 	bne	a1,a2,400590 <func_0+0x450>
  400758:	00000000 	nop
  40075c:	8fa20000 	lw	v0,0(sp)
  400760:	8fa30004 	lw	v1,4(sp)
  400764:	8fa40008 	lw	a0,8(sp)
  400768:	00431021 	addu	v0,v0,v1
  40076c:	00441021 	addu	v0,v0,a0
  400770:	03e00008 	jr	ra
  400774:	27bd0010 	addiu	sp,sp,16

00400778 <func_1>:
  400778:	27bdfff0 	addiu	sp,sp,-16
  40077c:	2402000a 	li	v0,10
  400780:	afa20000 	sw	v0,0(sp)
  400784:	2403000b 	li	v1,11
  400788:	2402000c 	li	v0,12
  40078c:	afa30004 	sw	v1,4(sp)
  400790:	00002821 	move	a1,zero
  400794:	afa20008 	sw	v0,8(sp)
  400798:	24060002 	li	a2,2
  40079c:	8fa20000 	lw	v0,0(sp)
  4007a0:	8fa30004 	lw	v1,4(sp)
  4007a4:	8fa40008 	lw	a0,8(sp)
  4007a8:	00431021 	addu	v0,v0,v1
  4007ac:	00441023 	subu	v0,v0,a0
  4007b0:	00451021 	addu	v0,v0,a1
  4007b4:	afa20000 	sw	v0,0(sp)
  4007b8:	8fa30000 	lw	v1,0(sp)
  4007bc:	8fa20004 	lw	v0,4(sp)
  4007c0:	8fa40008 	lw	a0,8(sp)
  4007c4:	00621821 	addu	v1,v1,v0
  4007c8:	00641823 	subu	v1,v1,a0
  4007cc:	00651821 	addu	v1,v1,a1
  4007d0:	afa30004 	sw	v1,4(sp)
  4007d4:	8fa20000 	lw	v0,0(sp)
  4007d8:	8fa30004 	lw	v1,4(sp)
  4007dc:	8fa40008 	lw	a0,8(sp)
  4007e0:	00431021 	addu	v0,v0,v1
  4007e4:	00441023 	subu	v0,v0,a0
  4007e8:	00451021 	addu	v0,v0,a1
  4007ec:	afa20008 	sw	v0,8(sp)
  4007f0:	8fa30000 	lw	v1,0(sp)
  4007f4:	8fa20004 	lw	v0,4(sp)
  4007f8:	8fa40008 	lw	a0,8(sp)
  4007fc:	00621821 	addu	v1,v1,v0
  400800:	00641823 	subu	v1,v1,a0
  400804:	00651821 	addu	v1,v1,a1
  400808:	afa30000 	sw	v1,0(sp)
  40080c:	8fa20000 	lw	v0,0(sp)
  400810:	8fa30004 	lw	v1,4(sp)
  400814:	8fa40008 	lw	a0,8(sp)
  400818:	00431021 	addu	v0,v0,v1
  40081c:	00441023 	subu	v0,v0,a0
  400820:	00451021 	addu	v0,v0,a1
  400824:	afa20004 	sw	v0,4(sp)
  400828:	8fa30000 	lw	v1,0(sp)
  40082c:	8fa20004 	lw	v0,4(sp)
  400830:	8fa40008 	lw	a0,8(sp)
  400834:	00621821 	addu	v1,v1,v0
  400838:	00641823 	subu	v1,v1,a0
  40083c:	00651821 	addu	v1,v1,a1
  400840:	afa30008 	sw	v1,8(sp)
  400844:	8fa20000 	lw	v0,0(sp)
  400848:	8fa30004 	lw	v1,4(sp)
  40084c:	8fa40008 	lw	a0,8(sp)
  400850:	00431021 	addu	v0,v0,v1
  400854:	00441023 	subu	v0,v0,a0
  400858:	00451021 	addu	v0,v0,a1
  40085c:	afa20000 	sw	v0,0(sp)
  400860:	8fa30000 	lw	v1,0(sp)
  400864:	8fa20004 	lw	v0,4(sp)
  400868:	8fa40008 	lw	a0,8(sp)
  40086c:	00621821 	addu	v1,v1,v0
  400870:	00641823 	subu	v1,v1,a0
  400874:	00651821 	addu	v1,v1,a1
  400878:	afa30004 	sw	v1,4(sp)
  40087c:	8fa20000 	lw	v0,0(sp)
  400880:	8fa30004 	lw	v1,4(sp)
  400884:	8fa40008 	lw	a0,8(sp)
  400888:	00431021 	addu	v0,v0,v1
  40088c:	00441023 	subu	v0,v0,a0
  400890:	00451021 	addu	v0,v0,a1
  400894:	afa20008 	sw	v0,8(sp)
  400898:	8fa30000 	lw	v1,0(sp)
  40089c:	8fa20004 	lw	v0,4(sp)
  4008a0:	8fa40008 	lw	a0,8(sp)
  4008a4:	00621821 	addu	v1,v1,v0
  4008a8:	00641823 	subu	v1,v1,a0
  4008ac:	00651821 	addu	v1,v1,a1
  4008b0:	afa30000 	sw	v1,0(sp)
  4008b4:	8fa20000 	lw	v0,0(sp)
  4008b8:	8fa30004 	lw	v1,4(sp)
  4008bc:	8fa40008 	lw	a0,8(sp)
  4008c0:	00431021 	addu	v0,v0,v1
  4008c4:	00441023 	subu	v0,v0,a0
  4008c8:	00451021 	addu	v0,v0,a1
  4008cc:	afa20004 	sw	v0,4(sp)
  4008d0:	8fa30000 	lw	v1,0(sp)
  4008d4:	8fa20004 	lw	v0,4(sp)
  4008d8:	8fa40008 	lw	a0,8(sp)
  4008dc:	00621821 	addu	v1,v1,v0
  4008e0:	00641823 	subu	v1,v1,a0
  4008e4:	00651821 	addu	v1,v1,a1
  4008e8:	afa30008 	sw	v1,8(sp)
  4008ec:	8fa20000 	lw	v0,0(sp)
  4008f0:	8fa30004 	lw	v1,4(sp)
  4008f4:	8fa40008 	lw	a0,8(sp)
  4008f8:	00431021 	addu	v0,v0,v1
  4008fc:	00441023 	subu	v0,v0,a0
  400900:	00451021 	addu	v0,v0,a1
  400904:	afa20000 	sw	v0,0(sp)
  400908:	8fa30000 	lw	v1,0(sp)
  40090c:	8fa20004 	lw	v0,4(sp)
  400910:	8fa40008 	lw	a0,8(sp)
  400914:	00621821 	addu	v1,v1,v0
  400918:	00641823 	subu	v1,v1,a0
  40091c:	00651821 	addu	v1,v1,a1
  400920:	afa30004 	sw	v1,4(sp)
  400924:	8fa20000 	lw	v0,0(sp)
  400928:	8fa30004 	lw	v1,4(sp)
  40092c:	8fa40008 	lw	a0,8(sp)
  400930:	00431021 	addu	v0,v0,v1
  400934:	00441023 	subu	v0,v0,a0
  400938:	00451021 	addu	v0,v0,a1
  40093c:	afa20008 	sw	v0,8(sp)
  400940:	8fa30000 	lw	v1,0(sp)
  400944:	8fa20004 	lw	v0,4(sp)
  400948:	8fa40008 	lw	a0,8(sp)
  40094c:	00621821 	addu	v1,v1,v0
  400950:	00641823 	subu	v1,v1,a0
  400954:	00651821 	addu	v1,v1,a1
  400958:	24a50001 	addiu	a1,a1,1
  40095c:	afa30000 	sw	v1,0(sp)
  400960:	14a6ff8e 	bne	a1,a2,40079c <func_1+0x24>
  400964:	00000000 	nop
  400968:	00002821 	move	a1,zero
  40096c:	24060002 	li	a2,2
  400970:	8fa20000 	lw	v0,0(sp)
  400974:	8fa30004 	lw	v1,4(sp)
  400978:	8fa40008 	lw	a0,8(sp)
  40097c:	00431021 	addu	v0,v0,v1
  400980:	00441023 	subu	v0,v0,a0
  400984:	00451021 	addu	v0,v0,a1
  400988:	afa20004 	sw	v0,4(sp)
  40098c:	8fa30000 	lw	v1,0(sp)
  400990:	8fa20004 	lw	v0,4(sp)
  400994:	8fa40008 	lw	a0,8(sp)
  400998:	00621821 	addu	v1,v1,v0
  40099c:	00641823 	subu	v1,v1,a0
  4009a0:	00651821 	addu	v1,v1,a1
  4009a4:	afa30000 	sw	v1,0(sp)
  4009a8:	8fa20000 	lw	v0,0(sp)
  4009ac:	8fa30004 	lw	v1,4(sp)
  4009b0:	8fa40008 	lw	a0,8(sp)
  4009b4:	00431021 	addu	v0,v0,v1
  4009b8:	00441023 	subu	v0,v0,a0
  4009bc:	00451021 	addu	v0,v0,a1
  4009c0:	afa20008 	sw	v0,8(sp)
  4009c4:	8fa30000 	lw	v1,0(sp)
  4009c8:	8fa20004 	lw	v0,4(sp)
  4009cc:	8fa40008 	lw	a0,8(sp)
  4009d0:	00621821 	addu	v1,v1,v0
  4009d4:	00641823 	subu	v1,v1,a0
  4009d8:	00651821 	addu	v1,v1,a1
  4009dc:	afa30004 	sw	v1,4(sp)
  4009e0:	8fa20000 	lw	v0,0(sp)
  4009e4:	8fa30004 	lw	v1,4(sp)
  4009e8:	8fa40008 	lw	a0,8(sp)
  4009ec:	00431021 	addu	v0,v0,v1
  4009f0:	00441023 	subu	v0,v0,a0
  4009f4:	00451021 	addu	v0,v0,a1
  4009f8:	afa20004 	sw	v0,4(sp)
  4009fc:	8fa30000 	lw	v1,0(sp)
  400a00:	8fa20004 	lw	v0,4(sp)
  400a04:	8fa40008 	lw	a0,8(sp)
  400a08:	00621821 	addu	v1,v1,v0
  400a0c:	00641823 	subu	v1,v1,a0
  400a10:	00651821 	addu	v1,v1,a1
  400a14:	afa30000 	sw	v1,0(sp)
  400a18:	8fa20000 	lw	v0,0(sp)
  400a1c:	8fa30004 	lw	v1,4(sp)
  400a20:	8fa40008 	lw	a0,8(sp)
  400a24:	00431021 	addu	v0,v0,v1
  400a28:	00441023 	subu	v0,v0,a0
  400a2c:	00451021 	addu	v0,v0,a1
  400a30:	afa20008 	sw	v0,8(sp)
  400a34:	8fa30000 	lw	v1,0(sp)
  400a38:	8fa20004 	lw	v0,4(sp)
  400a3c:	8fa40008 	lw	a0,8(sp)
  400a40:	00621821 	addu	v1,v1,v0
  400a44:	00641823 	subu	v1,v1,a0
  400a48:	00651821 	addu	v1,v1,a1
  400a4c:	afa30004 	sw	v1,4(sp)
  400a50:	8fa20000 	lw	v0,0(sp)
  400a54:	8fa30004 	lw	v1,4(sp)
  400a58:	8fa40008 	lw	a0,8(sp)
  400a5c:	00431021 	addu	v0,v0,v1
  400a60:	00441023 	subu	v0,v0,a0
  400a64:	00451021 	addu	v0,v0,a1
  400a68:	afa20000 	sw	v0,0(sp)
  400a6c:	8fa30000 	lw	v1,0(sp)
  400a70:	8fa20004 	lw	v0,4(sp)
  400a74:	8fa40008 	lw	a0,8(sp)
  400a78:	00621821 	addu	v1,v1,v0
  400a7c:	00641823 	subu	v1,v1,a0
  400a80:	00651821 	addu	v1,v1,a1
  400a84:	afa30008 	sw	v1,8(sp)
  400a88:	8fa20000 	lw	v0,0(sp)
  400a8c:	8fa30004 	lw	v1,4(sp)
  400a90:	8fa40008 	lw	a0,8(sp)
  400a94:	00431021 	addu	v0,v0,v1
  400a98:	00441023 	subu	v0,v0,a0
  400a9c:	00451021 	addu	v0,v0,a1
  400aa0:	afa20004 	sw	v0,4(sp)
  400aa4:	8fa30000 	lw	v1,0(sp)
  400aa8:	8fa20004 	lw	v0,4(sp)
  400aac:	8fa40008 	lw	a0,8(sp)
  400ab0:	00621821 	addu	v1,v1,v0
  400ab4:	00641823 	subu	v1,v1,a0
  400ab8:	00651821 	addu	v1,v1,a1
  400abc:	afa30000 	sw	v1,0(sp)
  400ac0:	8fa20000 	lw	v0,0(sp)
  400ac4:	8fa30004 	lw	v1,4(sp)
  400ac8:	8fa40008 	lw	a0,8(sp)
  400acc:	00431021 	addu	v0,v0,v1
  400ad0:	00441023 	subu	v0,v0,a0
  400ad4:	00451021 	addu	v0,v0,a1
  400ad8:	24a50001 	addiu	a1,a1,1
  400adc:	afa20008 	sw	v0,8(sp)
  400ae0:	14a6ffa3 	bne	a1,a2,400970 <func_1+0x1f8>
  400ae4:	00000000 	nop
  400ae8:	00002821 	move	a1,zero
  400aec:	24060002 	li	a2,2
  400af0:	8fa20000 	lw	v0,0(sp)
  400af4:	8fa30004 	lw	v1,4(sp)
  400af8:	8fa40008 	lw	a0,8(sp)
  400afc:	00431021 	addu	v0,v0,v1
  400b00:	00441023 	subu	v0,v0,a0
  400b04:	00451021 	addu	v0,v0,a1
  400b08:	afa20008 	sw	v0,8(sp)
  400b0c:	8fa30000 	lw	v1,0(sp)
  400b10:	8fa20004 	lw	v0,4(sp)
  400b14:	8fa40008 	lw	a0,8(sp)
  400b18:	00621821 	addu	v1,v1,v0
  400b1c:	00641823 	subu	v1,v1,a0
  400b20:	00651821 	addu	v1,v1,a1
  400b24:	afa30004 	sw	v1,4(sp)
  400b28:	8fa20000 	lw	v0,0(sp)
  400b2c:	8fa30004 	lw	v1,4(sp)
  400b30:	8fa40008 	lw	a0,8(sp)
  400b34:	00431021 	addu	v0,v0,v1
  400b38:	00441023 	subu	v0,v0,a0
  400b3c:	00451021 	addu	v0,v0,a1
  400b40:	afa20000 	sw	v0,0(sp)
  400b44:	8fa30000 	lw	v1,0(sp)
  400b48:	8fa20004 	lw	v0,4(sp)
  400b4c:	8fa40008 	lw	a0,8(sp)
  400b50:	00621821 	addu	v1,v1,v0
  400b54:	00641823 	subu	v1,v1,a0
  400b58:	00651821 	addu	v1,v1,a1
  400b5c:	afa30008 	sw	v1,8(sp)
  400b60:	8fa20000 	lw	v0,0(sp)
  400b64:	8fa30004 	lw	v1,4(sp)
  400b68:	8fa40008 	lw	a0,8(sp)
  400b6c:	00431021 	addu	v0,v0,v1
  400b70:	00441023 	subu	v0,v0,a0
  400b74:	00451021 	addu	v0,v0,a1
  400b78:	afa20004 	sw	v0,4(sp)
  400b7c:	8fa30000 	lw	v1,0(sp)
  400b80:	8fa20004 	lw	v0,4(sp)
  400b84:	8fa40008 	lw	a0,8(sp)
  400b88:	00621821 	addu	v1,v1,v0
  400b8c:	00641823 	subu	v1,v1,a0
  400b90:	00651821 	addu	v1,v1,a1
  400b94:	afa30000 	sw	v1,0(sp)
  400b98:	8fa20000 	lw	v0,0(sp)
  400b9c:	8fa30004 	lw	v1,4(sp)
  400ba0:	8fa40008 	lw	a0,8(sp)
  400ba4:	00431021 	addu	v0,v0,v1
  400ba8:	00441023 	subu	v0,v0,a0
  400bac:	00451021 	addu	v0,v0,a1
  400bb0:	24a50001 	addiu	a1,a1,1
  400bb4:	afa20008 	sw	v0,8(sp)
  400bb8:	14a6ffcd 	bne	a1,a2,400af0 <func_1+0x378>
  400bbc:	00000000 	nop
  400bc0:	00002821 	move	a1,zero
  400bc4:	24060002 	li	a2,2
  400bc8:	8fa20000 	lw	v0,0(sp)
  400bcc:	8fa30004 	lw	v1,4(sp)
  400bd0:	8fa40008 	lw	a0,8(sp)
  400bd4:	00431021 	addu	v0,v0,v1
  400bd8:	00441023 	subu	v0,v0,a0
  400bdc:	00451021 	addu	v0,v0,a1
  400be0:	afa20000 	sw	v0,0(sp)
  400be4:	8fa30000 	lw	v1,0(sp)
  400be8:	8fa20004 	lw	v0,4(sp)
  400bec:	8fa40008 	lw	a0,8(sp)
  400bf0:	00621821 	addu	v1,v1,v0
  400bf4:	00641823 	subu	v1,v1,a0
  400bf8:	00651821 	addu	v1,v1,a1
  400bfc:	afa30008 	sw	v1,8(sp)
  400c00:	8fa20000 	lw	v0,0(sp)
  400c04:	8fa30004 	lw	v1,4(sp)
  400c08:	8fa40008 	lw	a0,8(sp)
  400c0c:	00431021 	addu	v0,v0,v1
  400c10:	00441023 	subu	v0,v0,a0
  400c14:	00451021 	addu	v0,v0,a1
  400c18:	afa20004 	sw	v0,4(sp)
  400c1c:	8fa30000 	lw	v1,0(sp)
  400c20:	8fa20004 	lw	v0,4(sp)
  400c24:	8fa40008 	lw	a0,8(sp)
  400c28:	00621821 	addu	v1,v1,v0
  400c2c:	00641823 	subu	v1,v1,a0
  400c30:	00651821 	addu	v1,v1,a1
  400c34:	afa30000 	sw	v1,0(sp)
  400c38:	8fa20000 	lw	v0,0(sp)
  400c3c:	8fa30004 	lw	v1,4(sp)
  400c40:	8fa40008 	lw	a0,8(sp)
  400c44:	00431021 	addu	v0,v0,v1
  400c48:	00441023 	subu	v0,v0,a0
  400c4c:	00451021 	addu	v0,v0,a1
  400c50:	afa20008 	sw	v0,8(sp)
  400c54:	8fa30000 	lw	v1,0(sp)
  400c58:	8fa20004 	lw	v0,4(sp)
  400c5c:	8fa40008 	lw	a0,8(sp)
  400c60:	00621821 	addu	v1,v1,v0
  400c64:	00641823 	subu	v1,v1,a0
  400c68:	00651821 	addu	v1,v1,a1
  400c6c:	afa30004 	sw	v1,4(sp)
  400c70:	8fa20000 	lw	v0,0(sp)
  400c74:	8fa30004 	lw	v1,4(sp)
  400c78:	8fa40008 	lw	a0,8(sp)
  400c7c:	00431021 	addu	v0,v0,v1
  400c80:	00441023 	subu	v0,v0,a0
  400c84:	00451021 	addu	v0,v0,a1
  400c88:	afa20000 	sw	v0,0(sp)
  400c8c:	8fa30000 	lw	v1,0(sp)
  400c90:	8fa20004 	lw	v0,4(sp)
  400c94:	8fa40008 	lw	a0,8(sp)
  400c98:	00621821 	addu	v1,v1,v0
  400c9c:	00641823 	subu	v1,v1,a0
  400ca0:	00651821 	addu	v1,v1,a1
  400ca4:	afa30004 	sw	v1,4(sp)
  400ca8:	8fa20000 	lw	v0,0(sp)
  400cac:	8fa30004 	lw	v1,4(sp)
  400cb0:	8fa40008 	lw	a0,8(sp)
  400cb4:	00431021 	addu	v0,v0,v1
  400cb8:	00441023 	subu	v0,v0,a0
  400cbc:	00451021 	addu	v0,v0,a1
  400cc0:	afa20000 	sw	v0,0(sp)
  400cc4:	8fa30000 	lw	v1,0(sp)
  400cc8:	8fa20004 	lw	v0,4(sp)
  400ccc:	8fa40008 	lw	a0,8(sp)
  400cd0:	00621821 	addu	v1,v1,v0
  400cd4:	00641823 	subu	v1,v1,a0
  400cd8:	00651821 	addu	v1,v1,a1
  400cdc:	afa30008 	sw	v1,8(sp)
  400ce0:	8fa20000 	lw	v0,0(sp)
  400ce4:	8fa30004 	lw	v1,4(sp)
  400ce8:	8fa40008 	lw	a0,8(sp)
  400cec:	00431021 	addu	v0,v0,v1
  400cf0:	00441023 	subu	v0,v0,a0
  400cf4:	00451021 	addu	v0,v0,a1
  400cf8:	afa20004 	sw	v0,4(sp)
  400cfc:	8fa30000 	lw	v1,0(sp)
  400d00:	8fa20004 	lw	v0,4(sp)
  400d04:	8fa40008 	lw	a0,8(sp)
  400d08:	00621821 	addu	v1,v1,v0
  400d0c:	00641823 	subu	v1,v1,a0
  400d10:	00651821 	addu	v1,v1,a1
  400d14:	afa30000 	sw	v1,0(sp)
  400d18:	8fa20000 	lw	v0,0(sp)
  400d1c:	8fa30004 	lw	v1,4(sp)
  400d20:	8fa40008 	lw	a0,8(sp)
  400d24:	00431021 	addu	v0,v0,v1
  400d28:	00441023 	subu	v0,v0,a0
  400d2c:	00451021 	addu	v0,v0,a1
  400d30:	afa20008 	sw	v0,8(sp)
  400d34:	8fa30000 	lw	v1,0(sp)
  400d38:	8fa20004 	lw	v0,4(sp)
  400d3c:	8fa40008 	lw	a0,8(sp)
  400d40:	00621821 	addu	v1,v1,v0
  400d44:	00641823 	subu	v1,v1,a0
  400d48:	00651821 	addu	v1,v1,a1
  400d4c:	afa30004 	sw	v1,4(sp)
  400d50:	8fa20000 	lw	v0,0(sp)
  400d54:	8fa30004 	lw	v1,4(sp)
  400d58:	8fa40008 	lw	a0,8(sp)
  400d5c:	00431021 	addu	v0,v0,v1
  400d60:	00441023 	subu	v0,v0,a0
  400d64:	00451021 	addu	v0,v0,a1
  400d68:	afa20000 	sw	v0,0(sp)
  400d6c:	8fa30000 	lw	v1,0(sp)
  400d70:	8fa20004 	lw	v0,4(sp)
  400d74:	8fa40008 	lw	a0,8(sp)
  400d78:	00621821 	addu	v1,v1,v0
  400d7c:	00641823 	subu	v1,v1,a0
  400d80:	00651821 	addu	v1,v1,a1
  400d84:	24a50001 	addiu	a1,a1,1
  400d88:	afa30004 	sw	v1,4(sp)
  400d8c:	14a6ff8e 	bne	a1,a2,400bc8 <func_1+0x450>
  400d90:	00000000 	nop
  400d94:	8fa20000 	lw	v0,0(sp)
  400d98:	8fa30004 	lw	v1,4(sp)
  400d9c:	8fa40008 	lw	a0,8(sp)
  400da0:	00431021 	addu	v0,v0,v1
  400da4:	00441021 	addu	v0,v0,a0
  400da8:	03e00008 	jr	ra
  400dac:	27bd0010 	addiu	sp,sp,16

00400db0 <func_2>:
  400db0:	27bdfff0 	addiu	sp,sp,-16
  400db4:	2402000a 	li	v0,10
  400db8:	afa20000 	sw	v0,0(sp)
  400dbc:	2403000b 	li	v1,11
  400dc0:	2402000c 	li	v0,12
  400dc4:	afa30004 	sw	v1,4(sp)
  400dc8:	00002821 	move	a1,zero
  400dcc:	afa20008 	sw	v0,8(sp)
  400dd0:	24060002 	li	a2,2
  400dd4:	8fa20000 	lw	v0,0(sp)
  400dd8:	8fa30004 	lw	v1,4(sp)
  400ddc:	8fa40008 	lw	a0,8(sp)
  400de0:	00431021 	addu	v0,v0,v1
  400de4:	00441023 	subu	v0,v0,a0
  400de8:	00451021 	addu	v0,v0,a1
  400dec:	afa20000 	sw	v0,0(sp)
  400df0:	8fa30000 	lw	v1,0(sp)
  400df4:	8fa20004 	lw	v0,4(sp)
  400df8:	8fa40008 	lw	a0,8(sp)
  400dfc:	00621821 	addu	v1,v1,v0
  400e00:	00641823 	subu	v1,v1,a0
  400e04:	00651821 	addu	v1,v1,a1
  400e08:	afa30004 	sw	v1,4(sp)
  400e0c:	8fa20000 	lw	v0,0(sp)
  400e10:	8fa30004 	lw	v1,4(sp)
  400e14:	8fa40008 	lw	a0,8(sp)
  400e18:	00431021 	addu	v0,v0,v1
  400e1c:	00441023 	subu	v0,v0,a0
  400e20:	00451021 	addu	v0,v0,a1
  400e24:	afa20008 	sw	v0,8(sp)
  400e28:	8fa30000 	lw	v1,0(sp)
  400e2c:	8fa20004 	lw	v0,4(sp)
  400e30:	8fa40008 	lw	a0,8(sp)
  400e34:	00621821 	addu	v1,v1,v0
  400e38:	00641823 	subu	v1,v1,a0
  400e3c:	00651821 	addu	v1,v1,a1
  400e40:	afa30000 	sw	v1,0(sp)
  400e44:	8fa20000 	lw	v0,0(sp)
  400e48:	8fa30004 	lw	v1,4(sp)
  400e4c:	8fa40008 	lw	a0,8(sp)
  400e50:	00431021 	addu	v0,v0,v1
  400e54:	00441023 	subu	v0,v0,a0
  400e58:	00451021 	addu	v0,v0,a1
  400e5c:	afa20004 	sw	v0,4(sp)
  400e60:	8fa30000 	lw	v1,0(sp)
  400e64:	8fa20004 	lw	v0,4(sp)
  400e68:	8fa40008 	lw	a0,8(sp)
  400e6c:	00621821 	addu	v1,v1,v0
  400e70:	00641823 	subu	v1,v1,a0
  400e74:	00651821 	addu	v1,v1,a1
  400e78:	afa30008 	sw	v1,8(sp)
  400e7c:	8fa20000 	lw	v0,0(sp)
  400e80:	8fa30004 	lw	v1,4(sp)
  400e84:	8fa40008 	lw	a0,8(sp)
  400e88:	00431021 	addu	v0,v0,v1
  400e8c:	00441023 	subu	v0,v0,a0
  400e90:	00451021 	addu	v0,v0,a1
  400e94:	afa20000 	sw	v0,0(sp)
  400e98:	8fa30000 	lw	v1,0(sp)
  400e9c:	8fa20004 	lw	v0,4(sp)
  400ea0:	8fa40008 	lw	a0,8(sp)
  400ea4:	00621821 	addu	v1,v1,v0
  400ea8:	00641823 	subu	v1,v1,a0
  400eac:	00651821 	addu	v1,v1,a1
  400eb0:	afa30004 	sw	v1,4(sp)
  400eb4:	8fa20000 	lw	v0,0(sp)
  400eb8:	8fa30004 	lw	v1,4(sp)
  400ebc:	8fa40008 	lw	a0,8(sp)
  400ec0:	00431021 	addu	v0,v0,v1
  400ec4:	00441023 	subu	v0,v0,a0
  400ec8:	00451021 	addu	v0,v0,a1
  400ecc:	afa20008 	sw	v0,8(sp)
  400ed0:	8fa30000 	lw	v1,0(sp)
  400ed4:	8fa20004 	lw	v0,4(sp)
  400ed8:	8fa40008 	lw	a0,8(sp)
  400edc:	00621821 	addu	v1,v1,v0
  400ee0:	00641823 	subu	v1,v1,a0
  400ee4:	00651821 	addu	v1,v1,a1
  400ee8:	afa30000 	sw	v1,0(sp)
  400eec:	8fa20000 	lw	v0,0(sp)
  400ef0:	8fa30004 	lw	v1,4(sp)
  400ef4:	8fa40008 	lw	a0,8(sp)
  400ef8:	00431021 	addu	v0,v0,v1
  400efc:	00441023 	subu	v0,v0,a0
  400f00:	00451021 	addu	v0,v0,a1
  400f04:	afa20004 	sw	v0,4(sp)
  400f08:	8fa30000 	lw	v1,0(sp)
  400f0c:	8fa20004 	lw	v0,4(sp)
  400f10:	8fa40008 	lw	a0,8(sp)
  400f14:	00621821 	addu	v1,v1,v0
  400f18:	00641823 	subu	v1,v1,a0
  400f1c:	00651821 	addu	v1,v1,a1
  400f20:	afa30008 	sw	v1,8(sp)
  400f24:	8fa20000 	lw	v0,0(sp)
  400f28:	8fa30004 	lw	v1,4(sp)
  400f2c:	8fa40008 	lw	a0,8(sp)
  400f30:	00431021 	addu	v0,v0,v1
  400f34:	00441023 	subu	v0,v0,a0
  400f38:	00451021 	addu	v0,v0,a1
  400f3c:	afa20000 	sw	v0,0(sp)
  400f40:	8fa30000 	lw	v1,0(sp)
  400f44:	8fa20004 	lw	v0,4(sp)
  400f48:	8fa40008 	lw	a0,8(sp)
  400f4c:	00621821 	addu	v1,v1,v0
  400f50:	00641823 	subu	v1,v1,a0
  400f54:	00651821 	addu	v1,v1,a1
  400f58:	afa30004 	sw	v1,4(sp)
  400f5c:	8fa20000 	lw	v0,0(sp)
  400f60:	8fa30004 	lw	v1,4(sp)
  400f64:	8fa40008 	lw	a0,8(sp)
  400f68:	00431021 	addu	v0,v0,v1
  400f6c:	00441023 	subu	v0,v0,a0
  400f70:	00451021 	addu	v0,v0,a1
  400f74:	afa20008 	sw	v0,8(sp)
  400f78:	8fa30000 	lw	v1,0(sp)
  400f7c:	8fa20004 	lw	v0,4(sp)
  400f80:	8fa40008 	lw	a0,8(sp)
  400f84:	00621821 	addu	v1,v1,v0
  400f88:	00641823 	subu	v1,v1,a0
  400f8c:	00651821 	addu	v1,v1,a1
  400f90:	24a50001 	addiu	a1,a1,1
  400f94:	afa30000 	sw	v1,0(sp)
  400f98:	14a6ff8e 	bne	a1,a2,400dd4 <func_2+0x24>
  400f9c:	00000000 	nop
  400fa0:	00002821 	move	a1,zero
  400fa4:	24060002 	li	a2,2
  400fa8:	8fa20000 	lw	v0,0(sp)
  400fac:	8fa30004 	lw	v1,4(sp)
  400fb0:	8fa40008 	lw	a0,8(sp)
  400fb4:	00431021 	addu	v0,v0,v1
  400fb8:	00441023 	subu	v0,v0,a0
  400fbc:	00451021 	addu	v0,v0,a1
  400fc0:	afa20004 	sw	v0,4(sp)
  400fc4:	8fa30000 	lw	v1,0(sp)
  400fc8:	8fa20004 	lw	v0,4(sp)
  400fcc:	8fa40008 	lw	a0,8(sp)
  400fd0:	00621821 	addu	v1,v1,v0
  400fd4:	00641823 	subu	v1,v1,a0
  400fd8:	00651821 	addu	v1,v1,a1
  400fdc:	afa30000 	sw	v1,0(sp)
  400fe0:	8fa20000 	lw	v0,0(sp)
  400fe4:	8fa30004 	lw	v1,4(sp)
  400fe8:	8fa40008 	lw	a0,8(sp)
  400fec:	00431021 	addu	v0,v0,v1
  400ff0:	00441023 	subu	v0,v0,a0
  400ff4:	00451021 	addu	v0,v0,a1
  400ff8:	afa20008 	sw	v0,8(sp)
  400ffc:	8fa30000 	lw	v1,0(sp)
  401000:	8fa20004 	lw	v0,4(sp)
  401004:	8fa40008 	lw	a0,8(sp)
  401008:	00621821 	addu	v1,v1,v0
  40100c:	00641823 	subu	v1,v1,a0
  401010:	00651821 	addu	v1,v1,a1
  401014:	afa30004 	sw	v1,4(sp)
  401018:	8fa20000 	lw	v0,0(sp)
  40101c:	8fa30004 	lw	v1,4(sp)
  401020:	8fa40008 	lw	a0,8(sp)
  401024:	00431021 	addu	v0,v0,v1
  401028:	00441023 	subu	v0,v0,a0
  40102c:	00451021 	addu	v0,v0,a1
  401030:	afa20004 	sw	v0,4(sp)
  401034:	8fa30000 	lw	v1,0(sp)
  401038:	8fa20004 	lw	v0,4(sp)
  40103c:	8fa40008 	lw	a0,8(sp)
  401040:	00621821 	addu	v1,v1,v0
  401044:	00641823 	subu	v1,v1,a0
  401048:	00651821 	addu	v1,v1,a1
  40104c:	afa30000 	sw	v1,0(sp)
  401050:	8fa20000 	lw	v0,0(sp)
  401054:	8fa30004 	lw	v1,4(sp)
  401058:	8fa40008 	lw	a0,8(sp)
  40105c:	00431021 	addu	v0,v0,v1
  401060:	00441023 	subu	v0,v0,a0
  401064:	00451021 	addu	v0,v0,a1
  401068:	afa20008 	sw	v0,8(sp)
  40106c:	8fa30000 	lw	v1,0(sp)
  401070:	8fa20004 	lw	v0,4(sp)
  401074:	8fa40008 	lw	a0,8(sp)
  401078:	00621821 	addu	v1,v1,v0
  40107c:	00641823 	subu	v1,v1,a0
  401080:	00651821 	addu	v1,v1,a1
  401084:	afa30004 	sw	v1,4(sp)
  401088:	8fa20000 	lw	v0,0(sp)
  40108c:	8fa30004 	lw	v1,4(sp)
  401090:	8fa40008 	lw	a0,8(sp)
  401094:	00431021 	addu	v0,v0,v1
  401098:	00441023 	subu	v0,v0,a0
  40109c:	00451021 	addu	v0,v0,a1
  4010a0:	afa20000 	sw	v0,0(sp)
  4010a4:	8fa30000 	lw	v1,0(sp)
  4010a8:	8fa20004 	lw	v0,4(sp)
  4010ac:	8fa40008 	lw	a0,8(sp)
  4010b0:	00621821 	addu	v1,v1,v0
  4010b4:	00641823 	subu	v1,v1,a0
  4010b8:	00651821 	addu	v1,v1,a1
  4010bc:	afa30008 	sw	v1,8(sp)
  4010c0:	8fa20000 	lw	v0,0(sp)
  4010c4:	8fa30004 	lw	v1,4(sp)
  4010c8:	8fa40008 	lw	a0,8(sp)
  4010cc:	00431021 	addu	v0,v0,v1
  4010d0:	00441023 	subu	v0,v0,a0
  4010d4:	00451021 	addu	v0,v0,a1
  4010d8:	afa20004 	sw	v0,4(sp)
  4010dc:	8fa30000 	lw	v1,0(sp)
  4010e0:	8fa20004 	lw	v0,4(sp)
  4010e4:	8fa40008 	lw	a0,8(sp)
  4010e8:	00621821 	addu	v1,v1,v0
  4010ec:	00641823 	subu	v1,v1,a0
  4010f0:	00651821 	addu	v1,v1,a1
  4010f4:	afa30000 	sw	v1,0(sp)
  4010f8:	8fa20000 	lw	v0,0(sp)
  4010fc:	8fa30004 	lw	v1,4(sp)
  401100:	8fa40008 	lw	a0,8(sp)
  401104:	00431021 	addu	v0,v0,v1
  401108:	00441023 	subu	v0,v0,a0
  40110c:	00451021 	addu	v0,v0,a1
  401110:	24a50001 	addiu	a1,a1,1
  401114:	afa20008 	sw	v0,8(sp)
  401118:	14a6ffa3 	bne	a1,a2,400fa8 <func_2+0x1f8>
  40111c:	00000000 	nop
  401120:	00002821 	move	a1,zero
  401124:	24060002 	li	a2,2
  401128:	8fa20000 	lw	v0,0(sp)
  40112c:	8fa30004 	lw	v1,4(sp)
  401130:	8fa40008 	lw	a0,8(sp)
  401134:	00431021 	addu	v0,v0,v1
  401138:	00441023 	subu	v0,v0,a0
  40113c:	00451021 	addu	v0,v0,a1
  401140:	afa20008 	sw	v0,8(sp)
  401144:	8fa30000 	lw	v1,0(sp)
  401148:	8fa20004 	lw	v0,4(sp)
  40114c:	8fa40008 	lw	a0,8(sp)
  401150:	00621821 	addu	v1,v1,v0
  401154:	00641823 	subu	v1,v1,a0
  401158:	00651821 	addu	v1,v1,a1
  40115c:	afa30004 	sw	v1,4(sp)
  401160:	8fa20000 	lw	v0,0(sp)
  401164:	8fa30004 	lw	v1,4(sp)
  401168:	8fa40008 	lw	a0,8(sp)
  40116c:	00431021 	addu	v0,v0,v1
  401170:	00441023 	subu	v0,v0,a0
  401174:	00451021 	addu	v0,v0,a1
  401178:	afa20000 	sw	v0,0(sp)
  40117c:	8fa30000 	lw	v1,0(sp)
  401180:	8fa20004 	lw	v0,4(sp)
  401184:	8fa40008 	lw	a0,8(sp)
  401188:	00621821 	addu	v1,v1,v0
  40118c:	00641823 	subu	v1,v1,a0
  401190:	00651821 	addu	v1,v1,a1
  401194:	afa30008 	sw	v1,8(sp)
  401198:	8fa20000 	lw	v0,0(sp)
  40119c:	8fa30004 	lw	v1,4(sp)
  4011a0:	8fa40008 	lw	a0,8(sp)
  4011a4:	00431021 	addu	v0,v0,v1
  4011a8:	00441023 	subu	v0,v0,a0
  4011ac:	00451021 	addu	v0,v0,a1
  4011b0:	afa20004 	sw	v0,4(sp)
  4011b4:	8fa30000 	lw	v1,0(sp)
  4011b8:	8fa20004 	lw	v0,4(sp)
  4011bc:	8fa40008 	lw	a0,8(sp)
  4011c0:	00621821 	addu	v1,v1,v0
  4011c4:	00641823 	subu	v1,v1,a0
  4011c8:	00651821 	addu	v1,v1,a1
  4011cc:	afa30000 	sw	v1,0(sp)
  4011d0:	8fa20000 	lw	v0,0(sp)
  4011d4:	8fa30004 	lw	v1,4(sp)
  4011d8:	8fa40008 	lw	a0,8(sp)
  4011dc:	00431021 	addu	v0,v0,v1
  4011e0:	00441023 	subu	v0,v0,a0
  4011e4:	00451021 	addu	v0,v0,a1
  4011e8:	24a50001 	addiu	a1,a1,1
  4011ec:	afa20008 	sw	v0,8(sp)
  4011f0:	14a6ffcd 	bne	a1,a2,401128 <func_2+0x378>
  4011f4:	00000000 	nop
  4011f8:	00002821 	move	a1,zero
  4011fc:	24060002 	li	a2,2
  401200:	8fa20000 	lw	v0,0(sp)
  401204:	8fa30004 	lw	v1,4(sp)
  401208:	8fa40008 	lw	a0,8(sp)
  40120c:	00431021 	addu	v0,v0,v1
  401210:	00441023 	subu	v0,v0,a0
  401214:	00451021 	addu	v0,v0,a1
  401218:	afa20000 	sw	v0,0(sp)
  40121c:	8fa30000 	lw	v1,0(sp)
  401220:	8fa20004 	lw	v0,4(sp)
  401224:	8fa40008 	lw	a0,8(sp)
  401228:	00621821 	addu	v1,v1,v0
  40122c:	00641823 	subu	v1,v1,a0
  401230:	00651821 	addu	v1,v1,a1
  401234:	afa30008 	sw	v1,8(sp)
  401238:	8fa20000 	lw	v0,0(sp)
  40123c:	8fa30004 	lw	v1,4(sp)
  401240:	8fa40008 	lw	a0,8(sp)
  401244:	00431021 	addu	v0,v0,v1
  401248:	00441023 	subu	v0,v0,a0
  40124c:	00451021 	addu	v0,v0,a1
  401250:	afa20004 	sw	v0,4(sp)
  401254:	8fa30000 	lw	v1,0(sp)
  401258:	8fa20004 	lw	v0,4(sp)
  40125c:	8fa40008 	lw	a0,8(sp)
  401260:	00621821 	addu	v1,v1,v0
  401264:	00641823 	subu	v1,v1,a0
  401268:	00651821 	addu	v1,v1,a1
  40126c:	afa30000 	sw	v1,0(sp)
  401270:	8fa20000 	lw	v0,0(sp)
  401274:	8fa30004 	lw	v1,4(sp)
  401278:	8fa40008 	lw	a0,8(sp)
  40127c:	00431021 	addu	v0,v0,v1
  401280:	00441023 	subu	v0,v0,a0
  401284:	00451021 	addu	v0,v0,a1
  401288:	afa20008 	sw	v0,8(sp)
  40128c:	8fa30000 	lw	v1,0(sp)
  401290:	8fa20004 	lw	v0,4(sp)
  401294:	8fa40008 	lw	a0,8(sp)
  401298:	00621821 	addu	v1,v1,v0
  40129c:	00641823 	subu	v1,v1,a0
  4012a0:	00651821 	addu	v1,v1,a1
  4012a4:	afa30004 	sw	v1,4(sp)
  4012a8:	8fa20000 	lw	v0,0(sp)
  4012ac:	8fa30004 	lw	v1,4(sp)
  4012b0:	8fa40008 	lw	a0,8(sp)
  4012b4:	00431021 	addu	v0,v0,v1
  4012b8:	00441023 	subu	v0,v0,a0
  4012bc:	00451021 	addu	v0,v0,a1
  4012c0:	afa20000 	sw	v0,0(sp)
  4012c4:	8fa30000 	lw	v1,0(sp)
  4012c8:	8fa20004 	lw	v0,4(sp)
  4012cc:	8fa40008 	lw	a0,8(sp)
  4012d0:	00621821 	addu	v1,v1,v0
  4012d4:	00641823 	subu	v1,v1,a0
  4012d8:	00651821 	addu	v1,v1,a1
  4012dc:	afa30004 	sw	v1,4(sp)
  4012e0:	8fa20000 	lw	v0,0(sp)
  4012e4:	8fa30004 	lw	v1,4(sp)
  4012e8:	8fa40008 	lw	a0,8(sp)
  4012ec:	00431021 	addu	v0,v0,v1
  4012f0:	00441023 	subu	v0,v0,a0
  4012f4:	00451021 	addu	v0,v0,a1
  4012f8:	afa20000 	sw	v0,0(sp)
  4012fc:	8fa30000 	lw	v1,0(sp)
  401300:	8fa20004 	lw	v0,4(sp)
  401304:	8fa40008 	lw	a0,8(sp)
  401308:	00621821 	addu	v1,v1,v0
  40130c:	00641823 	subu	v1,v1,a0
  401310:	00651821 	addu	v1,v1,a1
  401314:	afa30008 	sw	v1,8(sp)
  401318:	8fa20000 	lw	v0,0(sp)
  40131c:	8fa30004 	lw	v1,4(sp)
  401320:	8fa40008 	lw	a0,8(sp)
  401324:	00431021 	addu	v0,v0,v1
  401328:	00441023 	subu	v0,v0,a0
  40132c:	00451021 	addu	v0,v0,a1
  401330:	afa20004 	sw	v0,4(sp)
  401334:	8fa30000 	lw	v1,0(sp)
  401338:	8fa20004 	lw	v0,4(sp)
  40133c:	8fa40008 	lw	a0,8(sp)
  401340:	00621821 	addu	v1,v1,v0
  401344:	00641823 	subu	v1,v1,a0
  401348:	00651821 	addu	v1,v1,a1
  40134c:	afa30000 	sw	v1,0(sp)
  401350:	8fa20000 	lw	v0,0(sp)
  401354:	8fa30004 	lw	v1,4(sp)
  401358:	8fa40008 	lw	a0,8(sp)
  40135c:	00431021 	addu	v0,v0,v1
  401360:	00441023 	subu	v0,v0,a0
  401364:	00451021 	addu	v0,v0,a1
  401368:	afa20008 	sw	v0,8(sp)
  40136c:	8fa30000 	lw	v1,0(sp)
  401370:	8fa20004 	lw	v0,4(sp)
  401374:	8fa40008 	lw	a0,8(sp)
  401378:	00621821 	addu	v1,v1,v0
  40137c:	00641823 	subu	v1,v1,a0
  401380:	00651821 	addu	v1,v1,a1
  401384:	afa30004 	sw	v1,4(sp)
  401388:	8fa20000 	lw	v0,0(sp)
  40138c:	8fa30004 	lw	v1,4(sp)
  401390:	8fa40008 	lw	a0,8(sp)
  401394:	00431021 	addu	v0,v0,v1
  401398:	00441023 	subu	v0,v0,a0
  40139c:	00451021 	addu	v0,v0,a1
  4013a0:	afa20000 	sw	v0,0(sp)
  4013a4:	8fa30000 	lw	v1,0(sp)
  4013a8:	8fa20004 	lw	v0,4(sp)
  4013ac:	8fa40008 	lw	a0,8(sp)
  4013b0:	00621821 	addu	v1,v1,v0
  4013b4:	00641823 	subu	v1,v1,a0
  4013b8:	00651821 	addu	v1,v1,a1
  4013bc:	24a50001 	addiu	a1,a1,1
  4013c0:	afa30004 	sw	v1,4(sp)
  4013c4:	14a6ff8e 	bne	a1,a2,401200 <func_2+0x450>
  4013c8:	00000000 	nop
  4013cc:	8fa20000 	lw	v0,0(sp)
  4013d0:	8fa30004 	lw	v1,4(sp)
  4013d4:	8fa40008 	lw	a0,8(sp)
  4013d8:	00431021 	addu	v0,v0,v1
  4013dc:	00441021 	addu	v0,v0,a0
  4013e0:	03e00008 	jr	ra
  4013e4:	27bd0010 	addiu	sp,sp,16

004013e8 <func_3>:
  4013e8:	27bdfff0 	addiu	sp,sp,-16
  4013ec:	2402000a 	li	v0,10
  4013f0:	afa20000 	sw	v0,0(sp)
  4013f4:	2403000b 	li	v1,11
  4013f8:	2402000c 	li	v0,12
  4013fc:	afa30004 	sw	v1,4(sp)
  401400:	00002821 	move	a1,zero
  401404:	afa20008 	sw	v0,8(sp)
  401408:	24060002 	li	a2,2
  40140c:	8fa20000 	lw	v0,0(sp)
  401410:	8fa30004 	lw	v1,4(sp)
  401414:	8fa40008 	lw	a0,8(sp)
  401418:	00431021 	addu	v0,v0,v1
  40141c:	00441023 	subu	v0,v0,a0
  401420:	00451021 	addu	v0,v0,a1
  401424:	afa20000 	sw	v0,0(sp)
  401428:	8fa30000 	lw	v1,0(sp)
  40142c:	8fa20004 	lw	v0,4(sp)
  401430:	8fa40008 	lw	a0,8(sp)
  401434:	00621821 	addu	v1,v1,v0
  401438:	00641823 	subu	v1,v1,a0
  40143c:	00651821 	addu	v1,v1,a1
  401440:	afa30004 	sw	v1,4(sp)
  401444:	8fa20000 	lw	v0,0(sp)
  401448:	8fa30004 	lw	v1,4(sp)
  40144c:	8fa40008 	lw	a0,8(sp)
  401450:	00431021 	addu	v0,v0,v1
  401454:	00441023 	subu	v0,v0,a0
  401458:	00451021 	addu	v0,v0,a1
  40145c:	afa20008 	sw	v0,8(sp)
  401460:	8fa30000 	lw	v1,0(sp)
  401464:	8fa20004 	lw	v0,4(sp)
  401468:	8fa40008 	lw	a0,8(sp)
  40146c:	00621821 	addu	v1,v1,v0
  401470:	00641823 	subu	v1,v1,a0
  401474:	00651821 	addu	v1,v1,a1
  401478:	afa30000 	sw	v1,0(sp)
  40147c:	8fa20000 	lw	v0,0(sp)
  401480:	8fa30004 	lw	v1,4(sp)
  401484:	8fa40008 	lw	a0,8(sp)
  401488:	00431021 	addu	v0,v0,v1
  40148c:	00441023 	subu	v0,v0,a0
  401490:	00451021 	addu	v0,v0,a1
  401494:	afa20004 	sw	v0,4(sp)
  401498:	8fa30000 	lw	v1,0(sp)
  40149c:	8fa20004 	lw	v0,4(sp)
  4014a0:	8fa40008 	lw	a0,8(sp)
  4014a4:	00621821 	addu	v1,v1,v0
  4014a8:	00641823 	subu	v1,v1,a0
  4014ac:	00651821 	addu	v1,v1,a1
  4014b0:	afa30008 	sw	v1,8(sp)
  4014b4:	8fa20000 	lw	v0,0(sp)
  4014b8:	8fa30004 	lw	v1,4(sp)
  4014bc:	8fa40008 	lw	a0,8(sp)
  4014c0:	00431021 	addu	v0,v0,v1
  4014c4:	00441023 	subu	v0,v0,a0
  4014c8:	00451021 	addu	v0,v0,a1
  4014cc:	afa20000 	sw	v0,0(sp)
  4014d0:	8fa30000 	lw	v1,0(sp)
  4014d4:	8fa20004 	lw	v0,4(sp)
  4014d8:	8fa40008 	lw	a0,8(sp)
  4014dc:	00621821 	addu	v1,v1,v0
  4014e0:	00641823 	subu	v1,v1,a0
  4014e4:	00651821 	addu	v1,v1,a1
  4014e8:	afa30004 	sw	v1,4(sp)
  4014ec:	8fa20000 	lw	v0,0(sp)
  4014f0:	8fa30004 	lw	v1,4(sp)
  4014f4:	8fa40008 	lw	a0,8(sp)
  4014f8:	00431021 	addu	v0,v0,v1
  4014fc:	00441023 	subu	v0,v0,a0
  401500:	00451021 	addu	v0,v0,a1
  401504:	afa20008 	sw	v0,8(sp)
  401508:	8fa30000 	lw	v1,0(sp)
  40150c:	8fa20004 	lw	v0,4(sp)
  401510:	8fa40008 	lw	a0,8(sp)
  401514:	00621821 	addu	v1,v1,v0
  401518:	00641823 	subu	v1,v1,a0
  40151c:	00651821 	addu	v1,v1,a1
  401520:	afa30000 	sw	v1,0(sp)
  401524:	8fa20000 	lw	v0,0(sp)
  401528:	8fa30004 	lw	v1,4(sp)
  40152c:	8fa40008 	lw	a0,8(sp)
  401530:	00431021 	addu	v0,v0,v1
  401534:	00441023 	subu	v0,v0,a0
  401538:	00451021 	addu	v0,v0,a1
  40153c:	afa20004 	sw	v0,4(sp)
  401540:	8fa30000 	lw	v1,0(sp)
  401544:	8fa20004 	lw	v0,4(sp)
  401548:	8fa40008 	lw	a0,8(sp)
  40154c:	00621821 	addu	v1,v1,v0
  401550:	00641823 	subu	v1,v1,a0
  401554:	00651821 	addu	v1,v1,a1
  401558:	afa30008 	sw	v1,8(sp)
  40155c:	8fa20000 	lw	v0,0(sp)
  401560:	8fa30004 	lw	v1,4(sp)
  401564:	8fa40008 	lw	a0,8(sp)
  401568:	00431021 	addu	v0,v0,v1
  40156c:	00441023 	subu	v0,v0,a0
  401570:	00451021 	addu	v0,v0,a1
  401574:	afa20000 	sw	v0,0(sp)
  401578:	8fa30000 	lw	v1,0(sp)
  40157c:	8fa20004 	lw	v0,4(sp)
  401580:	8fa40008 	lw	a0,8(sp)
  401584:	00621821 	addu	v1,v1,v0
  401588:	00641823 	subu	v1,v1,a0
  40158c:	00651821 	addu	v1,v1,a1
  401590:	afa30004 	sw	v1,4(sp)
  401594:	8fa20000 	lw	v0,0(sp)
  401598:	8fa30004 	lw	v1,4(sp)
  40159c:	8fa40008 	lw	a0,8(sp)
  4015a0:	00431021 	addu	v0,v0,v1
  4015a4:	00441023 	subu	v0,v0,a0
  4015a8:	00451021 	addu	v0,v0,a1
  4015ac:	afa20008 	sw	v0,8(sp)
  4015b0:	8fa30000 	lw	v1,0(sp)
  4015b4:	8fa20004 	lw	v0,4(sp)
  4015b8:	8fa40008 	lw	a0,8(sp)
  4015bc:	00621821 	addu	v1,v1,v0
  4015c0:	00641823 	subu	v1,v1,a0
  4015c4:	00651821 	addu	v1,v1,a1
  4015c8:	24a50001 	addiu	a1,a1,1
  4015cc:	afa30000 	sw	v1,0(sp)
  4015d0:	14a6ff8e 	bne	a1,a2,40140c <func_3+0x24>
  4015d4:	00000000 	nop
  4015d8:	00002821 	move	a1,zero
  4015dc:	24060002 	li	a2,2
  4015e0:	8fa20000 	lw	v0,0(sp)
  4015e4:	8fa30004 	lw	v1,4(sp)
  4015e8:	8fa40008 	lw	a0,8(sp)
  4015ec:	00431021 	addu	v0,v0,v1
  4015f0:	00441023 	subu	v0,v0,a0
  4015f4:	00451021 	addu	v0,v0,a1
  4015f8:	afa20004 	sw	v0,4(sp)
  4015fc:	8fa30000 	lw	v1,0(sp)
  401600:	8fa20004 	lw	v0,4(sp)
  401604:	8fa40008 	lw	a0,8(sp)
  401608:	00621821 	addu	v1,v1,v0
  40160c:	00641823 	subu	v1,v1,a0
  401610:	00651821 	addu	v1,v1,a1
  401614:	afa30000 	sw	v1,0(sp)
  401618:	8fa20000 	lw	v0,0(sp)
  40161c:	8fa30004 	lw	v1,4(sp)
  401620:	8fa40008 	lw	a0,8(sp)
  401624:	00431021 	addu	v0,v0,v1
  401628:	00441023 	subu	v0,v0,a0
  40162c:	00451021 	addu	v0,v0,a1
  401630:	afa20008 	sw	v0,8(sp)
  401634:	8fa30000 	lw	v1,0(sp)
  401638:	8fa20004 	lw	v0,4(sp)
  40163c:	8fa40008 	lw	a0,8(sp)
  401640:	00621821 	addu	v1,v1,v0
  401644:	00641823 	subu	v1,v1,a0
  401648:	00651821 	addu	v1,v1,a1
  40164c:	afa30004 	sw	v1,4(sp)
  401650:	8fa20000 	lw	v0,0(sp)
  401654:	8fa30004 	lw	v1,4(sp)
  401658:	8fa40008 	lw	a0,8(sp)
  40165c:	00431021 	addu	v0,v0,v1
  401660:	00441023 	subu	v0,v0,a0
  401664:	00451021 	addu	v0,v0,a1
  401668:	afa20004 	sw	v0,4(sp)
  40166c:	8fa30000 	lw	v1,0(sp)
  401670:	8fa20004 	lw	v0,4(sp)
  401674:	8fa40008 	lw	a0,8(sp)
  401678:	00621821 	addu	v1,v1,v0
  40167c:	00641823 	subu	v1,v1,a0
  401680:	00651821 	addu	v1,v1,a1
  401684:	afa30000 	sw	v1,0(sp)
  401688:	8fa20000 	lw	v0,0(sp)
  40168c:	8fa30004 	lw	v1,4(sp)
  401690:	8fa40008 	lw	a0,8(sp)
  401694:	00431021 	addu	v0,v0,v1
  401698:	00441023 	subu	v0,v0,a0
  40169c:	00451021 	addu	v0,v0,a1
  4016a0:	afa20008 	sw	v0,8(sp)
  4016a4:	8fa30000 	lw	v1,0(sp)
  4016a8:	8fa20004 	lw	v0,4(sp)
  4016ac:	8fa40008 	lw	a0,8(sp)
  4016b0:	00621821 	addu	v1,v1,v0
  4016b4:	00641823 	subu	v1,v1,a0
  4016b8:	00651821 	addu	v1,v1,a1
  4016bc:	afa30004 	sw	v1,4(sp)
  4016c0:	8fa20000 	lw	v0,0(sp)
  4016c4:	8fa30004 	lw	v1,4(sp)
  4016c8:	8fa40008 	lw	a0,8(sp)
  4016cc:	00431021 	addu	v0,v0,v1
  4016d0:	00441023 	subu	v0,v0,a0
  4016d4:	00451021 	addu	v0,v0,a1
  4016d8:	afa20000 	sw	v0,0(sp)
  4016dc:	8fa30000 	lw	v1,0(sp)
  4016e0:	8fa20004 	lw	v0,4(sp)
  4016e4:	8fa40008 	lw	a0,8(sp)
  4016e8:	00621821 	addu	v1,v1,v0
  4016ec:	00641823 	subu	v1,v1,a0
  4016f0:	00651821 	addu	v1,v1,a1
  4016f4:	afa30008 	sw	v1,8(sp)
  4016f8:	8fa20000 	lw	v0,0(sp)
  4016fc:	8fa30004 	lw	v1,4(sp)
  401700:	8fa40008 	lw	a0,8(sp)
  401704:	00431021 	addu	v0,v0,v1
  401708:	00441023 	subu	v0,v0,a0
  40170c:	00451021 	addu	v0,v0,a1
  401710:	afa20004 	sw	v0,4(sp)
  401714:	8fa30000 	lw	v1,0(sp)
  401718:	8fa20004 	lw	v0,4(sp)
  40171c:	8fa40008 	lw	a0,8(sp)
  401720:	00621821 	addu	v1,v1,v0
  401724:	00641823 	subu	v1,v1,a0
  401728:	00651821 	addu	v1,v1,a1
  40172c:	afa30000 	sw	v1,0(sp)
  401730:	8fa20000 	lw	v0,0(sp)
  401734:	8fa30004 	lw	v1,4(sp)
  401738:	8fa40008 	lw	a0,8(sp)
  40173c:	00431021 	addu	v0,v0,v1
  401740:	00441023 	subu	v0,v0,a0
  401744:	00451021 	addu	v0,v0,a1
  401748:	24a50001 	addiu	a1,a1,1
  40174c:	afa20008 	sw	v0,8(sp)
  401750:	14a6ffa3 	bne	a1,a2,4015e0 <func_3+0x1f8>
  401754:	00000000 	nop
  401758:	00002821 	move	a1,zero
  40175c:	24060002 	li	a2,2
  401760:	8fa20000 	lw	v0,0(sp)
  401764:	8fa30004 	lw	v1,4(sp)
  401768:	8fa40008 	lw	a0,8(sp)
  40176c:	00431021 	addu	v0,v0,v1
  401770:	00441023 	subu	v0,v0,a0
  401774:	00451021 	addu	v0,v0,a1
  401778:	afa20008 	sw	v0,8(sp)
  40177c:	8fa30000 	lw	v1,0(sp)
  401780:	8fa20004 	lw	v0,4(sp)
  401784:	8fa40008 	lw	a0,8(sp)
  401788:	00621821 	addu	v1,v1,v0
  40178c:	00641823 	subu	v1,v1,a0
  401790:	00651821 	addu	v1,v1,a1
  401794:	afa30004 	sw	v1,4(sp)
  401798:	8fa20000 	lw	v0,0(sp)
  40179c:	8fa30004 	lw	v1,4(sp)
  4017a0:	8fa40008 	lw	a0,8(sp)
  4017a4:	00431021 	addu	v0,v0,v1
  4017a8:	00441023 	subu	v0,v0,a0
  4017ac:	00451021 	addu	v0,v0,a1
  4017b0:	afa20000 	sw	v0,0(sp)
  4017b4:	8fa30000 	lw	v1,0(sp)
  4017b8:	8fa20004 	lw	v0,4(sp)
  4017bc:	8fa40008 	lw	a0,8(sp)
  4017c0:	00621821 	addu	v1,v1,v0
  4017c4:	00641823 	subu	v1,v1,a0
  4017c8:	00651821 	addu	v1,v1,a1
  4017cc:	afa30008 	sw	v1,8(sp)
  4017d0:	8fa20000 	lw	v0,0(sp)
  4017d4:	8fa30004 	lw	v1,4(sp)
  4017d8:	8fa40008 	lw	a0,8(sp)
  4017dc:	00431021 	addu	v0,v0,v1
  4017e0:	00441023 	subu	v0,v0,a0
  4017e4:	00451021 	addu	v0,v0,a1
  4017e8:	afa20004 	sw	v0,4(sp)
  4017ec:	8fa30000 	lw	v1,0(sp)
  4017f0:	8fa20004 	lw	v0,4(sp)
  4017f4:	8fa40008 	lw	a0,8(sp)
  4017f8:	00621821 	addu	v1,v1,v0
  4017fc:	00641823 	subu	v1,v1,a0
  401800:	00651821 	addu	v1,v1,a1
  401804:	afa30000 	sw	v1,0(sp)
  401808:	8fa20000 	lw	v0,0(sp)
  40180c:	8fa30004 	lw	v1,4(sp)
  401810:	8fa40008 	lw	a0,8(sp)
  401814:	00431021 	addu	v0,v0,v1
  401818:	00441023 	subu	v0,v0,a0
  40181c:	00451021 	addu	v0,v0,a1
  401820:	24a50001 	addiu	a1,a1,1
  401824:	afa20008 	sw	v0,8(sp)
  401828:	14a6ffcd 	bne	a1,a2,401760 <func_3+0x378>
  40182c:	00000000 	nop
  401830:	00002821 	move	a1,zero
  401834:	24060002 	li	a2,2
  401838:	8fa20000 	lw	v0,0(sp)
  40183c:	8fa30004 	lw	v1,4(sp)
  401840:	8fa40008 	lw	a0,8(sp)
  401844:	00431021 	addu	v0,v0,v1
  401848:	00441023 	subu	v0,v0,a0
  40184c:	00451021 	addu	v0,v0,a1
  401850:	afa20000 	sw	v0,0(sp)
  401854:	8fa30000 	lw	v1,0(sp)
  401858:	8fa20004 	lw	v0,4(sp)
  40185c:	8fa40008 	lw	a0,8(sp)
  401860:	00621821 	addu	v1,v1,v0
  401864:	00641823 	subu	v1,v1,a0
  401868:	00651821 	addu	v1,v1,a1
  40186c:	afa30008 	sw	v1,8(sp)
  401870:	8fa20000 	lw	v0,0(sp)
  401874:	8fa30004 	lw	v1,4(sp)
  401878:	8fa40008 	lw	a0,8(sp)
  40187c:	00431021 	addu	v0,v0,v1
  401880:	00441023 	subu	v0,v0,a0
  401884:	00451021 	addu	v0,v0,a1
  401888:	afa20004 	sw	v0,4(sp)
  40188c:	8fa30000 	lw	v1,0(sp)
  401890:	8fa20004 	lw	v0,4(sp)
  401894:	8fa40008 	lw	a0,8(sp)
  401898:	00621821 	addu	v1,v1,v0
  40189c:	00641823 	subu	v1,v1,a0
  4018a0:	00651821 	addu	v1,v1,a1
  4018a4:	afa30000 	sw	v1,0(sp)
  4018a8:	8fa20000 	lw	v0,0(sp)
  4018ac:	8fa30004 	lw	v1,4(sp)
  4018b0:	8fa40008 	lw	a0,8(sp)
  4018b4:	00431021 	addu	v0,v0,v1
  4018b8:	00441023 	subu	v0,v0,a0
  4018bc:	00451021 	addu	v0,v0,a1
  4018c0:	afa20008 	sw	v0,8(sp)
  4018c4:	8fa30000 	lw	v1,0(sp)
  4018c8:	8fa20004 	lw	v0,4(sp)
  4018cc:	8fa40008 	lw	a0,8(sp)
  4018d0:	00621821 	addu	v1,v1,v0
  4018d4:	00641823 	subu	v1,v1,a0
  4018d8:	00651821 	addu	v1,v1,a1
  4018dc:	afa30004 	sw	v1,4(sp)
  4018e0:	8fa20000 	lw	v0,0(sp)
  4018e4:	8fa30004 	lw	v1,4(sp)
  4018e8:	8fa40008 	lw	a0,8(sp)
  4018ec:	00431021 	addu	v0,v0,v1
  4018f0:	00441023 	subu	v0,v0,a0
  4018f4:	00451021 	addu	v0,v0,a1
  4018f8:	afa20000 	sw	v0,0(sp)
  4018fc:	8fa30000 	lw	v1,0(sp)
  401900:	8fa20004 	lw	v0,4(sp)
  401904:	8fa40008 	lw	a0,8(sp)
  401908:	00621821 	addu	v1,v1,v0
  40190c:	00641823 	subu	v1,v1,a0
  401910:	00651821 	addu	v1,v1,a1
  401914:	afa30004 	sw	v1,4(sp)
  401918:	8fa20000 	lw	v0,0(sp)
  40191c:	8fa30004 	lw	v1,4(sp)
  401920:	8fa40008 	lw	a0,8(sp)
  401924:	00431021 	addu	v0,v0,v1
  401928:	00441023 	subu	v0,v0,a0
  40192c:	00451021 	addu	v0,v0,a1
  401930:	afa20000 	sw	v0,0(sp)
  401934:	8fa30000 	lw	v1,0(sp)
  401938:	8fa20004 	lw	v0,4(sp)
  40193c:	8fa40008 	lw	a0,8(sp)
  401940:	00621821 	addu	v1,v1,v0
  401944:	00641823 	subu	v1,v1,a0
  401948:	00651821 	addu	v1,v1,a1
  40194c:	afa30008 	sw	v1,8(sp)
  401950:	8fa20000 	lw	v0,0(sp)
  401954:	8fa30004 	lw	v1,4(sp)
  401958:	8fa40008 	lw	a0,8(sp)
  40195c:	00431021 	addu	v0,v0,v1
  401960:	00441023 	subu	v0,v0,a0
  401964:	00451021 	addu	v0,v0,a1
  401968:	afa20004 	sw	v0,4(sp)
  40196c:	8fa30000 	lw	v1,0(sp)
  401970:	8fa20004 	lw	v0,4(sp)
  401974:	8fa40008 	lw	a0,8(sp)
  401978:	00621821 	addu	v1,v1,v0
  40197c:	00641823 	subu	v1,v1,a0
  401980:	00651821 	addu	v1,v1,a1
  401984:	afa30000 	sw	v1,0(sp)
  401988:	8fa20000 	lw	v0,0(sp)
  40198c:	8fa30004 	lw	v1,4(sp)
  401990:	8fa40008 	lw	a0,8(sp)
  401994:	00431021 	addu	v0,v0,v1
  401998:	00441023 	subu	v0,v0,a0
  40199c:	00451021 	addu	v0,v0,a1
  4019a0:	afa20008 	sw	v0,8(sp)
  4019a4:	8fa30000 	lw	v1,0(sp)
  4019a8:	8fa20004 	lw	v0,4(sp)
  4019ac:	8fa40008 	lw	a0,8(sp)
  4019b0:	00621821 	addu	v1,v1,v0
  4019b4:	00641823 	subu	v1,v1,a0
  4019b8:	00651821 	addu	v1,v1,a1
  4019bc:	afa30004 	sw	v1,4(sp)
  4019c0:	8fa20000 	lw	v0,0(sp)
  4019c4:	8fa30004 	lw	v1,4(sp)
  4019c8:	8fa40008 	lw	a0,8(sp)
  4019cc:	00431021 	addu	v0,v0,v1
  4019d0:	00441023 	subu	v0,v0,a0
  4019d4:	00451021 	addu	v0,v0,a1
  4019d8:	afa20000 	sw	v0,0(sp)
  4019dc:	8fa30000 	lw	v1,0(sp)
  4019e0:	8fa20004 	lw	v0,4(sp)
  4019e4:	8fa40008 	lw	a0,8(sp)
  4019e8:	00621821 	addu	v1,v1,v0
  4019ec:	00641823 	subu	v1,v1,a0
  4019f0:	00651821 	addu	v1,v1,a1
  4019f4:	24a50001 	addiu	a1,a1,1
  4019f8:	afa30004 	sw	v1,4(sp)
  4019fc:	14a6ff8e 	bne	a1,a2,401838 <func_3+0x450>
  401a00:	00000000 	nop
  401a04:	8fa20000 	lw	v0,0(sp)
  401a08:	8fa30004 	lw	v1,4(sp)
  401a0c:	8fa40008 	lw	a0,8(sp)
  401a10:	00431021 	addu	v0,v0,v1
  401a14:	00441021 	addu	v0,v0,a0
  401a18:	03e00008 	jr	ra
  401a1c:	27bd0010 	addiu	sp,sp,16

00401a20 <func_4>:
  401a20:	27bdfff0 	addiu	sp,sp,-16
  401a24:	2402000a 	li	v0,10
  401a28:	afa20000 	sw	v0,0(sp)
  401a2c:	2403000b 	li	v1,11
  401a30:	2402000c 	li	v0,12
  401a34:	afa30004 	sw	v1,4(sp)
  401a38:	00002821 	move	a1,zero
  401a3c:	afa20008 	sw	v0,8(sp)
  401a40:	24060002 	li	a2,2
  401a44:	8fa20000 	lw	v0,0(sp)
  401a48:	8fa30004 	lw	v1,4(sp)
  401a4c:	8fa40008 	lw	a0,8(sp)
  401a50:	00431021 	addu	v0,v0,v1
  401a54:	00441023 	subu	v0,v0,a0
  401a58:	00451021 	addu	v0,v0,a1
  401a5c:	afa20000 	sw	v0,0(sp)
  401a60:	8fa30000 	lw	v1,0(sp)
  401a64:	8fa20004 	lw	v0,4(sp)
  401a68:	8fa40008 	lw	a0,8(sp)
  401a6c:	00621821 	addu	v1,v1,v0
  401a70:	00641823 	subu	v1,v1,a0
  401a74:	00651821 	addu	v1,v1,a1
  401a78:	afa30004 	sw	v1,4(sp)
  401a7c:	8fa20000 	lw	v0,0(sp)
  401a80:	8fa30004 	lw	v1,4(sp)
  401a84:	8fa40008 	lw	a0,8(sp)
  401a88:	00431021 	addu	v0,v0,v1
  401a8c:	00441023 	subu	v0,v0,a0
  401a90:	00451021 	addu	v0,v0,a1
  401a94:	afa20008 	sw	v0,8(sp)
  401a98:	8fa30000 	lw	v1,0(sp)
  401a9c:	8fa20004 	lw	v0,4(sp)
  401aa0:	8fa40008 	lw	a0,8(sp)
  401aa4:	00621821 	addu	v1,v1,v0
  401aa8:	00641823 	subu	v1,v1,a0
  401aac:	00651821 	addu	v1,v1,a1
  401ab0:	afa30000 	sw	v1,0(sp)
  401ab4:	8fa20000 	lw	v0,0(sp)
  401ab8:	8fa30004 	lw	v1,4(sp)
  401abc:	8fa40008 	lw	a0,8(sp)
  401ac0:	00431021 	addu	v0,v0,v1
  401ac4:	00441023 	subu	v0,v0,a0
  401ac8:	00451021 	addu	v0,v0,a1
  401acc:	afa20004 	sw	v0,4(sp)
  401ad0:	8fa30000 	lw	v1,0(sp)
  401ad4:	8fa20004 	lw	v0,4(sp)
  401ad8:	8fa40008 	lw	a0,8(sp)
  401adc:	00621821 	addu	v1,v1,v0
  401ae0:	00641823 	subu	v1,v1,a0
  401ae4:	00651821 	addu	v1,v1,a1
  401ae8:	afa30008 	sw	v1,8(sp)
  401aec:	8fa20000 	lw	v0,0(sp)
  401af0:	8fa30004 	lw	v1,4(sp)
  401af4:	8fa40008 	lw	a0,8(sp)
  401af8:	00431021 	addu	v0,v0,v1
  401afc:	00441023 	subu	v0,v0,a0
  401b00:	00451021 	addu	v0,v0,a1
  401b04:	afa20000 	sw	v0,0(sp)
  401b08:	8fa30000 	lw	v1,0(sp)
  401b0c:	8fa20004 	lw	v0,4(sp)
  401b10:	8fa40008 	lw	a0,8(sp)
  401b14:	00621821 	addu	v1,v1,v0
  401b18:	00641823 	subu	v1,v1,a0
  401b1c:	00651821 	addu	v1,v1,a1
  401b20:	afa30004 	sw	v1,4(sp)
  401b24:	8fa20000 	lw	v0,0(sp)
  401b28:	8fa30004 	lw	v1,4(sp)
  401b2c:	8fa40008 	lw	a0,8(sp)
  401b30:	00431021 	addu	v0,v0,v1
  401b34:	00441023 	subu	v0,v0,a0
  401b38:	00451021 	addu	v0,v0,a1
  401b3c:	afa20008 	sw	v0,8(sp)
  401b40:	8fa30000 	lw	v1,0(sp)
  401b44:	8fa20004 	lw	v0,4(sp)
  401b48:	8fa40008 	lw	a0,8(sp)
  401b4c:	00621821 	addu	v1,v1,v0
  401b50:	00641823 	subu	v1,v1,a0
  401b54:	00651821 	addu	v1,v1,a1
  401b58:	afa30000 	sw	v1,0(sp)
  401b5c:	8fa20000 	lw	v0,0(sp)
  401b60:	8fa30004 	lw	v1,4(sp)
  401b64:	8fa40008 	lw	a0,8(sp)
  401b68:	00431021 	addu	v0,v0,v1
  401b6c:	00441023 	subu	v0,v0,a0
  401b70:	00451021 	addu	v0,v0,a1
  401b74:	afa20004 	sw	v0,4(sp)
  401b78:	8fa30000 	lw	v1,0(sp)
  401b7c:	8fa20004 	lw	v0,4(sp)
  401b80:	8fa40008 	lw	a0,8(sp)
  401b84:	00621821 	addu	v1,v1,v0
  401b88:	00641823 	subu	v1,v1,a0
  401b8c:	00651821 	addu	v1,v1,a1
  401b90:	afa30008 	sw	v1,8(sp)
  401b94:	8fa20000 	lw	v0,0(sp)
  401b98:	8fa30004 	lw	v1,4(sp)
  401b9c:	8fa40008 	lw	a0,8(sp)
  401ba0:	00431021 	addu	v0,v0,v1
  401ba4:	00441023 	subu	v0,v0,a0
  401ba8:	00451021 	addu	v0,v0,a1
  401bac:	afa20000 	sw	v0,0(sp)
  401bb0:	8fa30000 	lw	v1,0(sp)
  401bb4:	8fa20004 	lw	v0,4(sp)
  401bb8:	8fa40008 	lw	a0,8(sp)
  401bbc:	00621821 	addu	v1,v1,v0
  401bc0:	00641823 	subu	v1,v1,a0
  401bc4:	00651821 	addu	v1,v1,a1
  401bc8:	afa30004 	sw	v1,4(sp)
  401bcc:	8fa20000 	lw	v0,0(sp)
  401bd0:	8fa30004 	lw	v1,4(sp)
  401bd4:	8fa40008 	lw	a0,8(sp)
  401bd8:	00431021 	addu	v0,v0,v1
  401bdc:	00441023 	subu	v0,v0,a0
  401be0:	00451021 	addu	v0,v0,a1
  401be4:	afa20008 	sw	v0,8(sp)
  401be8:	8fa30000 	lw	v1,0(sp)
  401bec:	8fa20004 	lw	v0,4(sp)
  401bf0:	8fa40008 	lw	a0,8(sp)
  401bf4:	00621821 	addu	v1,v1,v0
  401bf8:	00641823 	subu	v1,v1,a0
  401bfc:	00651821 	addu	v1,v1,a1
  401c00:	24a50001 	addiu	a1,a1,1
  401c04:	afa30000 	sw	v1,0(sp)
  401c08:	14a6ff8e 	bne	a1,a2,401a44 <func_4+0x24>
  401c0c:	00000000 	nop
  401c10:	00002821 	move	a1,zero
  401c14:	24060002 	li	a2,2
  401c18:	8fa20000 	lw	v0,0(sp)
  401c1c:	8fa30004 	lw	v1,4(sp)
  401c20:	8fa40008 	lw	a0,8(sp)
  401c24:	00431021 	addu	v0,v0,v1
  401c28:	00441023 	subu	v0,v0,a0
  401c2c:	00451021 	addu	v0,v0,a1
  401c30:	afa20004 	sw	v0,4(sp)
  401c34:	8fa30000 	lw	v1,0(sp)
  401c38:	8fa20004 	lw	v0,4(sp)
  401c3c:	8fa40008 	lw	a0,8(sp)
  401c40:	00621821 	addu	v1,v1,v0
  401c44:	00641823 	subu	v1,v1,a0
  401c48:	00651821 	addu	v1,v1,a1
  401c4c:	afa30000 	sw	v1,0(sp)
  401c50:	8fa20000 	lw	v0,0(sp)
  401c54:	8fa30004 	lw	v1,4(sp)
  401c58:	8fa40008 	lw	a0,8(sp)
  401c5c:	00431021 	addu	v0,v0,v1
  401c60:	00441023 	subu	v0,v0,a0
  401c64:	00451021 	addu	v0,v0,a1
  401c68:	afa20008 	sw	v0,8(sp)
  401c6c:	8fa30000 	lw	v1,0(sp)
  401c70:	8fa20004 	lw	v0,4(sp)
  401c74:	8fa40008 	lw	a0,8(sp)
  401c78:	00621821 	addu	v1,v1,v0
  401c7c:	00641823 	subu	v1,v1,a0
  401c80:	00651821 	addu	v1,v1,a1
  401c84:	afa30004 	sw	v1,4(sp)
  401c88:	8fa20000 	lw	v0,0(sp)
  401c8c:	8fa30004 	lw	v1,4(sp)
  401c90:	8fa40008 	lw	a0,8(sp)
  401c94:	00431021 	addu	v0,v0,v1
  401c98:	00441023 	subu	v0,v0,a0
  401c9c:	00451021 	addu	v0,v0,a1
  401ca0:	afa20004 	sw	v0,4(sp)
  401ca4:	8fa30000 	lw	v1,0(sp)
  401ca8:	8fa20004 	lw	v0,4(sp)
  401cac:	8fa40008 	lw	a0,8(sp)
  401cb0:	00621821 	addu	v1,v1,v0
  401cb4:	00641823 	subu	v1,v1,a0
  401cb8:	00651821 	addu	v1,v1,a1
  401cbc:	afa30000 	sw	v1,0(sp)
  401cc0:	8fa20000 	lw	v0,0(sp)
  401cc4:	8fa30004 	lw	v1,4(sp)
  401cc8:	8fa40008 	lw	a0,8(sp)
  401ccc:	00431021 	addu	v0,v0,v1
  401cd0:	00441023 	subu	v0,v0,a0
  401cd4:	00451021 	addu	v0,v0,a1
  401cd8:	afa20008 	sw	v0,8(sp)
  401cdc:	8fa30000 	lw	v1,0(sp)
  401ce0:	8fa20004 	lw	v0,4(sp)
  401ce4:	8fa40008 	lw	a0,8(sp)
  401ce8:	00621821 	addu	v1,v1,v0
  401cec:	00641823 	subu	v1,v1,a0
  401cf0:	00651821 	addu	v1,v1,a1
  401cf4:	afa30004 	sw	v1,4(sp)
  401cf8:	8fa20000 	lw	v0,0(sp)
  401cfc:	8fa30004 	lw	v1,4(sp)
  401d00:	8fa40008 	lw	a0,8(sp)
  401d04:	00431021 	addu	v0,v0,v1
  401d08:	00441023 	subu	v0,v0,a0
  401d0c:	00451021 	addu	v0,v0,a1
  401d10:	afa20000 	sw	v0,0(sp)
  401d14:	8fa30000 	lw	v1,0(sp)
  401d18:	8fa20004 	lw	v0,4(sp)
  401d1c:	8fa40008 	lw	a0,8(sp)
  401d20:	00621821 	addu	v1,v1,v0
  401d24:	00641823 	subu	v1,v1,a0
  401d28:	00651821 	addu	v1,v1,a1
  401d2c:	afa30008 	sw	v1,8(sp)
  401d30:	8fa20000 	lw	v0,0(sp)
  401d34:	8fa30004 	lw	v1,4(sp)
  401d38:	8fa40008 	lw	a0,8(sp)
  401d3c:	00431021 	addu	v0,v0,v1
  401d40:	00441023 	subu	v0,v0,a0
  401d44:	00451021 	addu	v0,v0,a1
  401d48:	afa20004 	sw	v0,4(sp)
  401d4c:	8fa30000 	lw	v1,0(sp)
  401d50:	8fa20004 	lw	v0,4(sp)
  401d54:	8fa40008 	lw	a0,8(sp)
  401d58:	00621821 	addu	v1,v1,v0
  401d5c:	00641823 	subu	v1,v1,a0
  401d60:	00651821 	addu	v1,v1,a1
  401d64:	afa30000 	sw	v1,0(sp)
  401d68:	8fa20000 	lw	v0,0(sp)
  401d6c:	8fa30004 	lw	v1,4(sp)
  401d70:	8fa40008 	lw	a0,8(sp)
  401d74:	00431021 	addu	v0,v0,v1
  401d78:	00441023 	subu	v0,v0,a0
  401d7c:	00451021 	addu	v0,v0,a1
  401d80:	24a50001 	addiu	a1,a1,1
  401d84:	afa20008 	sw	v0,8(sp)
  401d88:	14a6ffa3 	bne	a1,a2,401c18 <func_4+0x1f8>
  401d8c:	00000000 	nop
  401d90:	00002821 	move	a1,zero
  401d94:	24060002 	li	a2,2
  401d98:	8fa20000 	lw	v0,0(sp)
  401d9c:	8fa30004 	lw	v1,4(sp)
  401da0:	8fa40008 	lw	a0,8(sp)
  401da4:	00431021 	addu	v0,v0,v1
  401da8:	00441023 	subu	v0,v0,a0
  401dac:	00451021 	addu	v0,v0,a1
  401db0:	afa20008 	sw	v0,8(sp)
  401db4:	8fa30000 	lw	v1,0(sp)
  401db8:	8fa20004 	lw	v0,4(sp)
  401dbc:	8fa40008 	lw	a0,8(sp)
  401dc0:	00621821 	addu	v1,v1,v0
  401dc4:	00641823 	subu	v1,v1,a0
  401dc8:	00651821 	addu	v1,v1,a1
  401dcc:	afa30004 	sw	v1,4(sp)
  401dd0:	8fa20000 	lw	v0,0(sp)
  401dd4:	8fa30004 	lw	v1,4(sp)
  401dd8:	8fa40008 	lw	a0,8(sp)
  401ddc:	00431021 	addu	v0,v0,v1
  401de0:	00441023 	subu	v0,v0,a0
  401de4:	00451021 	addu	v0,v0,a1
  401de8:	afa20000 	sw	v0,0(sp)
  401dec:	8fa30000 	lw	v1,0(sp)
  401df0:	8fa20004 	lw	v0,4(sp)
  401df4:	8fa40008 	lw	a0,8(sp)
  401df8:	00621821 	addu	v1,v1,v0
  401dfc:	00641823 	subu	v1,v1,a0
  401e00:	00651821 	addu	v1,v1,a1
  401e04:	afa30008 	sw	v1,8(sp)
  401e08:	8fa20000 	lw	v0,0(sp)
  401e0c:	8fa30004 	lw	v1,4(sp)
  401e10:	8fa40008 	lw	a0,8(sp)
  401e14:	00431021 	addu	v0,v0,v1
  401e18:	00441023 	subu	v0,v0,a0
  401e1c:	00451021 	addu	v0,v0,a1
  401e20:	afa20004 	sw	v0,4(sp)
  401e24:	8fa30000 	lw	v1,0(sp)
  401e28:	8fa20004 	lw	v0,4(sp)
  401e2c:	8fa40008 	lw	a0,8(sp)
  401e30:	00621821 	addu	v1,v1,v0
  401e34:	00641823 	subu	v1,v1,a0
  401e38:	00651821 	addu	v1,v1,a1
  401e3c:	afa30000 	sw	v1,0(sp)
  401e40:	8fa20000 	lw	v0,0(sp)
  401e44:	8fa30004 	lw	v1,4(sp)
  401e48:	8fa40008 	lw	a0,8(sp)
  401e4c:	00431021 	addu	v0,v0,v1
  401e50:	00441023 	subu	v0,v0,a0
  401e54:	00451021 	addu	v0,v0,a1
  401e58:	24a50001 	addiu	a1,a1,1
  401e5c:	afa20008 	sw	v0,8(sp)
  401e60:	14a6ffcd 	bne	a1,a2,401d98 <func_4+0x378>
  401e64:	00000000 	nop
  401e68:	00002821 	move	a1,zero
  401e6c:	24060002 	li	a2,2
  401e70:	8fa20000 	lw	v0,0(sp)
  401e74:	8fa30004 	lw	v1,4(sp)
  401e78:	8fa40008 	lw	a0,8(sp)
  401e7c:	00431021 	addu	v0,v0,v1
  401e80:	00441023 	subu	v0,v0,a0
  401e84:	00451021 	addu	v0,v0,a1
  401e88:	afa20000 	sw	v0,0(sp)
  401e8c:	8fa30000 	lw	v1,0(sp)
  401e90:	8fa20004 	lw	v0,4(sp)
  401e94:	8fa40008 	lw	a0,8(sp)
  401e98:	00621821 	addu	v1,v1,v0
  401e9c:	00641823 	subu	v1,v1,a0
  401ea0:	00651821 	addu	v1,v1,a1
  401ea4:	afa30008 	sw	v1,8(sp)
  401ea8:	8fa20000 	lw	v0,0(sp)
  401eac:	8fa30004 	lw	v1,4(sp)
  401eb0:	8fa40008 	lw	a0,8(sp)
  401eb4:	00431021 	addu	v0,v0,v1
  401eb8:	00441023 	subu	v0,v0,a0
  401ebc:	00451021 	addu	v0,v0,a1
  401ec0:	afa20004 	sw	v0,4(sp)
  401ec4:	8fa30000 	lw	v1,0(sp)
  401ec8:	8fa20004 	lw	v0,4(sp)
  401ecc:	8fa40008 	lw	a0,8(sp)
  401ed0:	00621821 	addu	v1,v1,v0
  401ed4:	00641823 	subu	v1,v1,a0
  401ed8:	00651821 	addu	v1,v1,a1
  401edc:	afa30000 	sw	v1,0(sp)
  401ee0:	8fa20000 	lw	v0,0(sp)
  401ee4:	8fa30004 	lw	v1,4(sp)
  401ee8:	8fa40008 	lw	a0,8(sp)
  401eec:	00431021 	addu	v0,v0,v1
  401ef0:	00441023 	subu	v0,v0,a0
  401ef4:	00451021 	addu	v0,v0,a1
  401ef8:	afa20008 	sw	v0,8(sp)
  401efc:	8fa30000 	lw	v1,0(sp)
  401f00:	8fa20004 	lw	v0,4(sp)
  401f04:	8fa40008 	lw	a0,8(sp)
  401f08:	00621821 	addu	v1,v1,v0
  401f0c:	00641823 	subu	v1,v1,a0
  401f10:	00651821 	addu	v1,v1,a1
  401f14:	afa30004 	sw	v1,4(sp)
  401f18:	8fa20000 	lw	v0,0(sp)
  401f1c:	8fa30004 	lw	v1,4(sp)
  401f20:	8fa40008 	lw	a0,8(sp)
  401f24:	00431021 	addu	v0,v0,v1
  401f28:	00441023 	subu	v0,v0,a0
  401f2c:	00451021 	addu	v0,v0,a1
  401f30:	afa20000 	sw	v0,0(sp)
  401f34:	8fa30000 	lw	v1,0(sp)
  401f38:	8fa20004 	lw	v0,4(sp)
  401f3c:	8fa40008 	lw	a0,8(sp)
  401f40:	00621821 	addu	v1,v1,v0
  401f44:	00641823 	subu	v1,v1,a0
  401f48:	00651821 	addu	v1,v1,a1
  401f4c:	afa30004 	sw	v1,4(sp)
  401f50:	8fa20000 	lw	v0,0(sp)
  401f54:	8fa30004 	lw	v1,4(sp)
  401f58:	8fa40008 	lw	a0,8(sp)
  401f5c:	00431021 	addu	v0,v0,v1
  401f60:	00441023 	subu	v0,v0,a0
  401f64:	00451021 	addu	v0,v0,a1
  401f68:	afa20000 	sw	v0,0(sp)
  401f6c:	8fa30000 	lw	v1,0(sp)
  401f70:	8fa20004 	lw	v0,4(sp)
  401f74:	8fa40008 	lw	a0,8(sp)
  401f78:	00621821 	addu	v1,v1,v0
  401f7c:	00641823 	subu	v1,v1,a0
  401f80:	00651821 	addu	v1,v1,a1
  401f84:	afa30008 	sw	v1,8(sp)
  401f88:	8fa20000 	lw	v0,0(sp)
  401f8c:	8fa30004 	lw	v1,4(sp)
  401f90:	8fa40008 	lw	a0,8(sp)
  401f94:	00431021 	addu	v0,v0,v1
  401f98:	00441023 	subu	v0,v0,a0
  401f9c:	00451021 	addu	v0,v0,a1
  401fa0:	afa20004 	sw	v0,4(sp)
  401fa4:	8fa30000 	lw	v1,0(sp)
  401fa8:	8fa20004 	lw	v0,4(sp)
  401fac:	8fa40008 	lw	a0,8(sp)
  401fb0:	00621821 	addu	v1,v1,v0
  401fb4:	00641823 	subu	v1,v1,a0
  401fb8:	00651821 	addu	v1,v1,a1
  401fbc:	afa30000 	sw	v1,0(sp)
  401fc0:	8fa20000 	lw	v0,0(sp)
  401fc4:	8fa30004 	lw	v1,4(sp)
  401fc8:	8fa40008 	lw	a0,8(sp)
  401fcc:	00431021 	addu	v0,v0,v1
  401fd0:	00441023 	subu	v0,v0,a0
  401fd4:	00451021 	addu	v0,v0,a1
  401fd8:	afa20008 	sw	v0,8(sp)
  401fdc:	8fa30000 	lw	v1,0(sp)
  401fe0:	8fa20004 	lw	v0,4(sp)
  401fe4:	8fa40008 	lw	a0,8(sp)
  401fe8:	00621821 	addu	v1,v1,v0
  401fec:	00641823 	subu	v1,v1,a0
  401ff0:	00651821 	addu	v1,v1,a1
  401ff4:	afa30004 	sw	v1,4(sp)
  401ff8:	8fa20000 	lw	v0,0(sp)
  401ffc:	8fa30004 	lw	v1,4(sp)
  402000:	8fa40008 	lw	a0,8(sp)
  402004:	00431021 	addu	v0,v0,v1
  402008:	00441023 	subu	v0,v0,a0
  40200c:	00451021 	addu	v0,v0,a1
  402010:	afa20000 	sw	v0,0(sp)
  402014:	8fa30000 	lw	v1,0(sp)
  402018:	8fa20004 	lw	v0,4(sp)
  40201c:	8fa40008 	lw	a0,8(sp)
  402020:	00621821 	addu	v1,v1,v0
  402024:	00641823 	subu	v1,v1,a0
  402028:	00651821 	addu	v1,v1,a1
  40202c:	24a50001 	addiu	a1,a1,1
  402030:	afa30004 	sw	v1,4(sp)
  402034:	14a6ff8e 	bne	a1,a2,401e70 <func_4+0x450>
  402038:	00000000 	nop
  40203c:	8fa20000 	lw	v0,0(sp)
  402040:	8fa30004 	lw	v1,4(sp)
  402044:	8fa40008 	lw	a0,8(sp)
  402048:	00431021 	addu	v0,v0,v1
  40204c:	00441021 	addu	v0,v0,a0
  402050:	03e00008 	jr	ra
  402054:	27bd0010 	addiu	sp,sp,16

00402058 <func_5>:
  402058:	27bdfff0 	addiu	sp,sp,-16
  40205c:	2402000a 	li	v0,10
  402060:	afa20000 	sw	v0,0(sp)
  402064:	2403000b 	li	v1,11
  402068:	2402000c 	li	v0,12
  40206c:	afa30004 	sw	v1,4(sp)
  402070:	00002821 	move	a1,zero
  402074:	afa20008 	sw	v0,8(sp)
  402078:	24060002 	li	a2,2
  40207c:	8fa20000 	lw	v0,0(sp)
  402080:	8fa30004 	lw	v1,4(sp)
  402084:	8fa40008 	lw	a0,8(sp)
  402088:	00431021 	addu	v0,v0,v1
  40208c:	00441023 	subu	v0,v0,a0
  402090:	00451021 	addu	v0,v0,a1
  402094:	afa20000 	sw	v0,0(sp)
  402098:	8fa30000 	lw	v1,0(sp)
  40209c:	8fa20004 	lw	v0,4(sp)
  4020a0:	8fa40008 	lw	a0,8(sp)
  4020a4:	00621821 	addu	v1,v1,v0
  4020a8:	00641823 	subu	v1,v1,a0
  4020ac:	00651821 	addu	v1,v1,a1
  4020b0:	afa30004 	sw	v1,4(sp)
  4020b4:	8fa20000 	lw	v0,0(sp)
  4020b8:	8fa30004 	lw	v1,4(sp)
  4020bc:	8fa40008 	lw	a0,8(sp)
  4020c0:	00431021 	addu	v0,v0,v1
  4020c4:	00441023 	subu	v0,v0,a0
  4020c8:	00451021 	addu	v0,v0,a1
  4020cc:	afa20008 	sw	v0,8(sp)
  4020d0:	8fa30000 	lw	v1,0(sp)
  4020d4:	8fa20004 	lw	v0,4(sp)
  4020d8:	8fa40008 	lw	a0,8(sp)
  4020dc:	00621821 	addu	v1,v1,v0
  4020e0:	00641823 	subu	v1,v1,a0
  4020e4:	00651821 	addu	v1,v1,a1
  4020e8:	afa30000 	sw	v1,0(sp)
  4020ec:	8fa20000 	lw	v0,0(sp)
  4020f0:	8fa30004 	lw	v1,4(sp)
  4020f4:	8fa40008 	lw	a0,8(sp)
  4020f8:	00431021 	addu	v0,v0,v1
  4020fc:	00441023 	subu	v0,v0,a0
  402100:	00451021 	addu	v0,v0,a1
  402104:	afa20004 	sw	v0,4(sp)
  402108:	8fa30000 	lw	v1,0(sp)
  40210c:	8fa20004 	lw	v0,4(sp)
  402110:	8fa40008 	lw	a0,8(sp)
  402114:	00621821 	addu	v1,v1,v0
  402118:	00641823 	subu	v1,v1,a0
  40211c:	00651821 	addu	v1,v1,a1
  402120:	afa30008 	sw	v1,8(sp)
  402124:	8fa20000 	lw	v0,0(sp)
  402128:	8fa30004 	lw	v1,4(sp)
  40212c:	8fa40008 	lw	a0,8(sp)
  402130:	00431021 	addu	v0,v0,v1
  402134:	00441023 	subu	v0,v0,a0
  402138:	00451021 	addu	v0,v0,a1
  40213c:	afa20000 	sw	v0,0(sp)
  402140:	8fa30000 	lw	v1,0(sp)
  402144:	8fa20004 	lw	v0,4(sp)
  402148:	8fa40008 	lw	a0,8(sp)
  40214c:	00621821 	addu	v1,v1,v0
  402150:	00641823 	subu	v1,v1,a0
  402154:	00651821 	addu	v1,v1,a1
  402158:	afa30004 	sw	v1,4(sp)
  40215c:	8fa20000 	lw	v0,0(sp)
  402160:	8fa30004 	lw	v1,4(sp)
  402164:	8fa40008 	lw	a0,8(sp)
  402168:	00431021 	addu	v0,v0,v1
  40216c:	00441023 	subu	v0,v0,a0
  402170:	00451021 	addu	v0,v0,a1
  402174:	afa20008 	sw	v0,8(sp)
  402178:	8fa30000 	lw	v1,0(sp)
  40217c:	8fa20004 	lw	v0,4(sp)
  402180:	8fa40008 	lw	a0,8(sp)
  402184:	00621821 	addu	v1,v1,v0
  402188:	00641823 	subu	v1,v1,a0
  40218c:	00651821 	addu	v1,v1,a1
  402190:	afa30000 	sw	v1,0(sp)
  402194:	8fa20000 	lw	v0,0(sp)
  402198:	8fa30004 	lw	v1,4(sp)
  40219c:	8fa40008 	lw	a0,8(sp)
  4021a0:	00431021 	addu	v0,v0,v1
  4021a4:	00441023 	subu	v0,v0,a0
  4021a8:	00451021 	addu	v0,v0,a1
  4021ac:	afa20004 	sw	v0,4(sp)
  4021b0:	8fa30000 	lw	v1,0(sp)
  4021b4:	8fa20004 	lw	v0,4(sp)
  4021b8:	8fa40008 	lw	a0,8(sp)
  4021bc:	00621821 	addu	v1,v1,v0
  4021c0:	00641823 	subu	v1,v1,a0
  4021c4:	00651821 	addu	v1,v1,a1
  4021c8:	afa30008 	sw	v1,8(sp)
  4021cc:	8fa20000 	lw	v0,0(sp)
  4021d0:	8fa30004 	lw	v1,4(sp)
  4021d4:	8fa40008 	lw	a0,8(sp)
  4021d8:	00431021 	addu	v0,v0,v1
  4021dc:	00441023 	subu	v0,v0,a0
  4021e0:	00451021 	addu	v0,v0,a1
  4021e4:	afa20000 	sw	v0,0(sp)
  4021e8:	8fa30000 	lw	v1,0(sp)
  4021ec:	8fa20004 	lw	v0,4(sp)
  4021f0:	8fa40008 	lw	a0,8(sp)
  4021f4:	00621821 	addu	v1,v1,v0
  4021f8:	00641823 	subu	v1,v1,a0
  4021fc:	00651821 	addu	v1,v1,a1
  402200:	afa30004 	sw	v1,4(sp)
  402204:	8fa20000 	lw	v0,0(sp)
  402208:	8fa30004 	lw	v1,4(sp)
  40220c:	8fa40008 	lw	a0,8(sp)
  402210:	00431021 	addu	v0,v0,v1
  402214:	00441023 	subu	v0,v0,a0
  402218:	00451021 	addu	v0,v0,a1
  40221c:	afa20008 	sw	v0,8(sp)
  402220:	8fa30000 	lw	v1,0(sp)
  402224:	8fa20004 	lw	v0,4(sp)
  402228:	8fa40008 	lw	a0,8(sp)
  40222c:	00621821 	addu	v1,v1,v0
  402230:	00641823 	subu	v1,v1,a0
  402234:	00651821 	addu	v1,v1,a1
  402238:	24a50001 	addiu	a1,a1,1
  40223c:	afa30000 	sw	v1,0(sp)
  402240:	14a6ff8e 	bne	a1,a2,40207c <func_5+0x24>
  402244:	00000000 	nop
  402248:	00002821 	move	a1,zero
  40224c:	24060002 	li	a2,2
  402250:	8fa20000 	lw	v0,0(sp)
  402254:	8fa30004 	lw	v1,4(sp)
  402258:	8fa40008 	lw	a0,8(sp)
  40225c:	00431021 	addu	v0,v0,v1
  402260:	00441023 	subu	v0,v0,a0
  402264:	00451021 	addu	v0,v0,a1
  402268:	afa20004 	sw	v0,4(sp)
  40226c:	8fa30000 	lw	v1,0(sp)
  402270:	8fa20004 	lw	v0,4(sp)
  402274:	8fa40008 	lw	a0,8(sp)
  402278:	00621821 	addu	v1,v1,v0
  40227c:	00641823 	subu	v1,v1,a0
  402280:	00651821 	addu	v1,v1,a1
  402284:	afa30000 	sw	v1,0(sp)
  402288:	8fa20000 	lw	v0,0(sp)
  40228c:	8fa30004 	lw	v1,4(sp)
  402290:	8fa40008 	lw	a0,8(sp)
  402294:	00431021 	addu	v0,v0,v1
  402298:	00441023 	subu	v0,v0,a0
  40229c:	00451021 	addu	v0,v0,a1
  4022a0:	afa20008 	sw	v0,8(sp)
  4022a4:	8fa30000 	lw	v1,0(sp)
  4022a8:	8fa20004 	lw	v0,4(sp)
  4022ac:	8fa40008 	lw	a0,8(sp)
  4022b0:	00621821 	addu	v1,v1,v0
  4022b4:	00641823 	subu	v1,v1,a0
  4022b8:	00651821 	addu	v1,v1,a1
  4022bc:	afa30004 	sw	v1,4(sp)
  4022c0:	8fa20000 	lw	v0,0(sp)
  4022c4:	8fa30004 	lw	v1,4(sp)
  4022c8:	8fa40008 	lw	a0,8(sp)
  4022cc:	00431021 	addu	v0,v0,v1
  4022d0:	00441023 	subu	v0,v0,a0
  4022d4:	00451021 	addu	v0,v0,a1
  4022d8:	afa20004 	sw	v0,4(sp)
  4022dc:	8fa30000 	lw	v1,0(sp)
  4022e0:	8fa20004 	lw	v0,4(sp)
  4022e4:	8fa40008 	lw	a0,8(sp)
  4022e8:	00621821 	addu	v1,v1,v0
  4022ec:	00641823 	subu	v1,v1,a0
  4022f0:	00651821 	addu	v1,v1,a1
  4022f4:	afa30000 	sw	v1,0(sp)
  4022f8:	8fa20000 	lw	v0,0(sp)
  4022fc:	8fa30004 	lw	v1,4(sp)
  402300:	8fa40008 	lw	a0,8(sp)
  402304:	00431021 	addu	v0,v0,v1
  402308:	00441023 	subu	v0,v0,a0
  40230c:	00451021 	addu	v0,v0,a1
  402310:	afa20008 	sw	v0,8(sp)
  402314:	8fa30000 	lw	v1,0(sp)
  402318:	8fa20004 	lw	v0,4(sp)
  40231c:	8fa40008 	lw	a0,8(sp)
  402320:	00621821 	addu	v1,v1,v0
  402324:	00641823 	subu	v1,v1,a0
  402328:	00651821 	addu	v1,v1,a1
  40232c:	afa30004 	sw	v1,4(sp)
  402330:	8fa20000 	lw	v0,0(sp)
  402334:	8fa30004 	lw	v1,4(sp)
  402338:	8fa40008 	lw	a0,8(sp)
  40233c:	00431021 	addu	v0,v0,v1
  402340:	00441023 	subu	v0,v0,a0
  402344:	00451021 	addu	v0,v0,a1
  402348:	afa20000 	sw	v0,0(sp)
  40234c:	8fa30000 	lw	v1,0(sp)
  402350:	8fa20004 	lw	v0,4(sp)
  402354:	8fa40008 	lw	a0,8(sp)
  402358:	00621821 	addu	v1,v1,v0
  40235c:	00641823 	subu	v1,v1,a0
  402360:	00651821 	addu	v1,v1,a1
  402364:	afa30008 	sw	v1,8(sp)
  402368:	8fa20000 	lw	v0,0(sp)
  40236c:	8fa30004 	lw	v1,4(sp)
  402370:	8fa40008 	lw	a0,8(sp)
  402374:	00431021 	addu	v0,v0,v1
  402378:	00441023 	subu	v0,v0,a0
  40237c:	00451021 	addu	v0,v0,a1
  402380:	afa20004 	sw	v0,4(sp)
  402384:	8fa30000 	lw	v1,0(sp)
  402388:	8fa20004 	lw	v0,4(sp)
  40238c:	8fa40008 	lw	a0,8(sp)
  402390:	00621821 	addu	v1,v1,v0
  402394:	00641823 	subu	v1,v1,a0
  402398:	00651821 	addu	v1,v1,a1
  40239c:	afa30000 	sw	v1,0(sp)
  4023a0:	8fa20000 	lw	v0,0(sp)
  4023a4:	8fa30004 	lw	v1,4(sp)
  4023a8:	8fa40008 	lw	a0,8(sp)
  4023ac:	00431021 	addu	v0,v0,v1
  4023b0:	00441023 	subu	v0,v0,a0
  4023b4:	00451021 	addu	v0,v0,a1
  4023b8:	24a50001 	addiu	a1,a1,1
  4023bc:	afa20008 	sw	v0,8(sp)
  4023c0:	14a6ffa3 	bne	a1,a2,402250 <func_5+0x1f8>
  4023c4:	00000000 	nop
  4023c8:	00002821 	move	a1,zero
  4023cc:	24060002 	li	a2,2
  4023d0:	8fa20000 	lw	v0,0(sp)
  4023d4:	8fa30004 	lw	v1,4(sp)
  4023d8:	8fa40008 	lw	a0,8(sp)
  4023dc:	00431021 	addu	v0,v0,v1
  4023e0:	00441023 	subu	v0,v0,a0
  4023e4:	00451021 	addu	v0,v0,a1
  4023e8:	afa20008 	sw	v0,8(sp)
  4023ec:	8fa30000 	lw	v1,0(sp)
  4023f0:	8fa20004 	lw	v0,4(sp)
  4023f4:	8fa40008 	lw	a0,8(sp)
  4023f8:	00621821 	addu	v1,v1,v0
  4023fc:	00641823 	subu	v1,v1,a0
  402400:	00651821 	addu	v1,v1,a1
  402404:	afa30004 	sw	v1,4(sp)
  402408:	8fa20000 	lw	v0,0(sp)
  40240c:	8fa30004 	lw	v1,4(sp)
  402410:	8fa40008 	lw	a0,8(sp)
  402414:	00431021 	addu	v0,v0,v1
  402418:	00441023 	subu	v0,v0,a0
  40241c:	00451021 	addu	v0,v0,a1
  402420:	afa20000 	sw	v0,0(sp)
  402424:	8fa30000 	lw	v1,0(sp)
  402428:	8fa20004 	lw	v0,4(sp)
  40242c:	8fa40008 	lw	a0,8(sp)
  402430:	00621821 	addu	v1,v1,v0
  402434:	00641823 	subu	v1,v1,a0
  402438:	00651821 	addu	v1,v1,a1
  40243c:	afa30008 	sw	v1,8(sp)
  402440:	8fa20000 	lw	v0,0(sp)
  402444:	8fa30004 	lw	v1,4(sp)
  402448:	8fa40008 	lw	a0,8(sp)
  40244c:	00431021 	addu	v0,v0,v1
  402450:	00441023 	subu	v0,v0,a0
  402454:	00451021 	addu	v0,v0,a1
  402458:	afa20004 	sw	v0,4(sp)
  40245c:	8fa30000 	lw	v1,0(sp)
  402460:	8fa20004 	lw	v0,4(sp)
  402464:	8fa40008 	lw	a0,8(sp)
  402468:	00621821 	addu	v1,v1,v0
  40246c:	00641823 	subu	v1,v1,a0
  402470:	00651821 	addu	v1,v1,a1
  402474:	afa30000 	sw	v1,0(sp)
  402478:	8fa20000 	lw	v0,0(sp)
  40247c:	8fa30004 	lw	v1,4(sp)
  402480:	8fa40008 	lw	a0,8(sp)
  402484:	00431021 	addu	v0,v0,v1
  402488:	00441023 	subu	v0,v0,a0
  40248c:	00451021 	addu	v0,v0,a1
  402490:	24a50001 	addiu	a1,a1,1
  402494:	afa20008 	sw	v0,8(sp)
  402498:	14a6ffcd 	bne	a1,a2,4023d0 <func_5+0x378>
  40249c:	00000000 	nop
  4024a0:	00002821 	move	a1,zero
  4024a4:	24060002 	li	a2,2
  4024a8:	8fa20000 	lw	v0,0(sp)
  4024ac:	8fa30004 	lw	v1,4(sp)
  4024b0:	8fa40008 	lw	a0,8(sp)
  4024b4:	00431021 	addu	v0,v0,v1
  4024b8:	00441023 	subu	v0,v0,a0
  4024bc:	00451021 	addu	v0,v0,a1
  4024c0:	afa20000 	sw	v0,0(sp)
  4024c4:	8fa30000 	lw	v1,0(sp)
  4024c8:	8fa20004 	lw	v0,4(sp)
  4024cc:	8fa40008 	lw	a0,8(sp)
  4024d0:	00621821 	addu	v1,v1,v0
  4024d4:	00641823 	subu	v1,v1,a0
  4024d8:	00651821 	addu	v1,v1,a1
  4024dc:	afa30008 	sw	v1,8(sp)
  4024e0:	8fa20000 	lw	v0,0(sp)
  4024e4:	8fa30004 	lw	v1,4(sp)
  4024e8:	8fa40008 	lw	a0,8(sp)
  4024ec:	00431021 	addu	v0,v0,v1
  4024f0:	00441023 	subu	v0,v0,a0
  4024f4:	00451021 	addu	v0,v0,a1
  4024f8:	afa20004 	sw	v0,4(sp)
  4024fc:	8fa30000 	lw	v1,0(sp)
  402500:	8fa20004 	lw	v0,4(sp)
  402504:	8fa40008 	lw	a0,8(sp)
  402508:	00621821 	addu	v1,v1,v0
  40250c:	00641823 	subu	v1,v1,a0
  402510:	00651821 	addu	v1,v1,a1
  402514:	afa30000 	sw	v1,0(sp)
  402518:	8fa20000 	lw	v0,0(sp)
  40251c:	8fa30004 	lw	v1,4(sp)
  402520:	8fa40008 	lw	a0,8(sp)
  402524:	00431021 	addu	v0,v0,v1
  402528:	00441023 	subu	v0,v0,a0
  40252c:	00451021 	addu	v0,v0,a1
  402530:	afa20008 	sw	v0,8(sp)
  402534:	8fa30000 	lw	v1,0(sp)
  402538:	8fa20004 	lw	v0,4(sp)
  40253c:	8fa40008 	lw	a0,8(sp)
  402540:	00621821 	addu	v1,v1,v0
  402544:	00641823 	subu	v1,v1,a0
  402548:	00651821 	addu	v1,v1,a1
  40254c:	afa30004 	sw	v1,4(sp)
  402550:	8fa20000 	lw	v0,0(sp)
  402554:	8fa30004 	lw	v1,4(sp)
  402558:	8fa40008 	lw	a0,8(sp)
  40255c:	00431021 	addu	v0,v0,v1
  402560:	00441023 	subu	v0,v0,a0
  402564:	00451021 	addu	v0,v0,a1
  402568:	afa20000 	sw	v0,0(sp)
  40256c:	8fa30000 	lw	v1,0(sp)
  402570:	8fa20004 	lw	v0,4(sp)
  402574:	8fa40008 	lw	a0,8(sp)
  402578:	00621821 	addu	v1,v1,v0
  40257c:	00641823 	subu	v1,v1,a0
  402580:	00651821 	addu	v1,v1,a1
  402584:	afa30004 	sw	v1,4(sp)
  402588:	8fa20000 	lw	v0,0(sp)
  40258c:	8fa30004 	lw	v1,4(sp)
  402590:	8fa40008 	lw	a0,8(sp)
  402594:	00431021 	addu	v0,v0,v1
  402598:	00441023 	subu	v0,v0,a0
  40259c:	00451021 	addu	v0,v0,a1
  4025a0:	afa20000 	sw	v0,0(sp)
  4025a4:	8fa30000 	lw	v1,0(sp)
  4025a8:	8fa20004 	lw	v0,4(sp)
  4025ac:	8fa40008 	lw	a0,8(sp)
  4025b0:	00621821 	addu	v1,v1,v0
  4025b4:	00641823 	subu	v1,v1,a0
  4025b8:	00651821 	addu	v1,v1,a1
  4025bc:	afa30008 	sw	v1,8(sp)
  4025c0:	8fa20000 	lw	v0,0(sp)
  4025c4:	8fa30004 	lw	v1,4(sp)
  4025c8:	8fa40008 	lw	a0,8(sp)
  4025cc:	00431021 	addu	v0,v0,v1
  4025d0:	00441023 	subu	v0,v0,a0
  4025d4:	00451021 	addu	v0,v0,a1
  4025d8:	afa20004 	sw	v0,4(sp)
  4025dc:	8fa30000 	lw	v1,0(sp)
  4025e0:	8fa20004 	lw	v0,4(sp)
  4025e4:	8fa40008 	lw	a0,8(sp)
  4025e8:	00621821 	addu	v1,v1,v0
  4025ec:	00641823 	subu	v1,v1,a0
  4025f0:	00651821 	addu	v1,v1,a1
  4025f4:	afa30000 	sw	v1,0(sp)
  4025f8:	8fa20000 	lw	v0,0(sp)
  4025fc:	8fa30004 	lw	v1,4(sp)
  402600:	8fa40008 	lw	a0,8(sp)
  402604:	00431021 	addu	v0,v0,v1
  402608:	00441023 	subu	v0,v0,a0
  40260c:	00451021 	addu	v0,v0,a1
  402610:	afa20008 	sw	v0,8(sp)
  402614:	8fa30000 	lw	v1,0(sp)
  402618:	8fa20004 	lw	v0,4(sp)
  40261c:	8fa40008 	lw	a0,8(sp)
  402620:	00621821 	addu	v1,v1,v0
  402624:	00641823 	subu	v1,v1,a0
  402628:	00651821 	addu	v1,v1,a1
  40262c:	afa30004 	sw	v1,4(sp)
  402630:	8fa20000 	lw	v0,0(sp)
  402634:	8fa30004 	lw	v1,4(sp)
  402638:	8fa40008 	lw	a0,8(sp)
  40263c:	00431021 	addu	v0,v0,v1
  402640:	00441023 	subu	v0,v0,a0
  402644:	00451021 	addu	v0,v0,a1
  402648:	afa20000 	sw	v0,0(sp)
  40264c:	8fa30000 	lw	v1,0(sp)
  402650:	8fa20004 	lw	v0,4(sp)
  402654:	8fa40008 	lw	a0,8(sp)
  402658:	00621821 	addu	v1,v1,v0
  40265c:	00641823 	subu	v1,v1,a0
  402660:	00651821 	addu	v1,v1,a1
  402664:	24a50001 	addiu	a1,a1,1
  402668:	afa30004 	sw	v1,4(sp)
  40266c:	14a6ff8e 	bne	a1,a2,4024a8 <func_5+0x450>
  402670:	00000000 	nop
  402674:	8fa20000 	lw	v0,0(sp)
  402678:	8fa30004 	lw	v1,4(sp)
  40267c:	8fa40008 	lw	a0,8(sp)
  402680:	00431021 	addu	v0,v0,v1
  402684:	00441021 	addu	v0,v0,a0
  402688:	03e00008 	jr	ra
  40268c:	27bd0010 	addiu	sp,sp,16

00402690 <func_6>:
  402690:	27bdfff0 	addiu	sp,sp,-16
  402694:	2402000a 	li	v0,10
  402698:	afa20000 	sw	v0,0(sp)
  40269c:	2403000b 	li	v1,11
  4026a0:	2402000c 	li	v0,12
  4026a4:	afa30004 	sw	v1,4(sp)
  4026a8:	00002821 	move	a1,zero
  4026ac:	afa20008 	sw	v0,8(sp)
  4026b0:	24060002 	li	a2,2
  4026b4:	8fa20000 	lw	v0,0(sp)
  4026b8:	8fa30004 	lw	v1,4(sp)
  4026bc:	8fa40008 	lw	a0,8(sp)
  4026c0:	00431021 	addu	v0,v0,v1
  4026c4:	00441023 	subu	v0,v0,a0
  4026c8:	00451021 	addu	v0,v0,a1
  4026cc:	afa20000 	sw	v0,0(sp)
  4026d0:	8fa30000 	lw	v1,0(sp)
  4026d4:	8fa20004 	lw	v0,4(sp)
  4026d8:	8fa40008 	lw	a0,8(sp)
  4026dc:	00621821 	addu	v1,v1,v0
  4026e0:	00641823 	subu	v1,v1,a0
  4026e4:	00651821 	addu	v1,v1,a1
  4026e8:	afa30004 	sw	v1,4(sp)
  4026ec:	8fa20000 	lw	v0,0(sp)
  4026f0:	8fa30004 	lw	v1,4(sp)
  4026f4:	8fa40008 	lw	a0,8(sp)
  4026f8:	00431021 	addu	v0,v0,v1
  4026fc:	00441023 	subu	v0,v0,a0
  402700:	00451021 	addu	v0,v0,a1
  402704:	afa20008 	sw	v0,8(sp)
  402708:	8fa30000 	lw	v1,0(sp)
  40270c:	8fa20004 	lw	v0,4(sp)
  402710:	8fa40008 	lw	a0,8(sp)
  402714:	00621821 	addu	v1,v1,v0
  402718:	00641823 	subu	v1,v1,a0
  40271c:	00651821 	addu	v1,v1,a1
  402720:	afa30000 	sw	v1,0(sp)
  402724:	8fa20000 	lw	v0,0(sp)
  402728:	8fa30004 	lw	v1,4(sp)
  40272c:	8fa40008 	lw	a0,8(sp)
  402730:	00431021 	addu	v0,v0,v1
  402734:	00441023 	subu	v0,v0,a0
  402738:	00451021 	addu	v0,v0,a1
  40273c:	afa20004 	sw	v0,4(sp)
  402740:	8fa30000 	lw	v1,0(sp)
  402744:	8fa20004 	lw	v0,4(sp)
  402748:	8fa40008 	lw	a0,8(sp)
  40274c:	00621821 	addu	v1,v1,v0
  402750:	00641823 	subu	v1,v1,a0
  402754:	00651821 	addu	v1,v1,a1
  402758:	afa30008 	sw	v1,8(sp)
  40275c:	8fa20000 	lw	v0,0(sp)
  402760:	8fa30004 	lw	v1,4(sp)
  402764:	8fa40008 	lw	a0,8(sp)
  402768:	00431021 	addu	v0,v0,v1
  40276c:	00441023 	subu	v0,v0,a0
  402770:	00451021 	addu	v0,v0,a1
  402774:	afa20000 	sw	v0,0(sp)
  402778:	8fa30000 	lw	v1,0(sp)
  40277c:	8fa20004 	lw	v0,4(sp)
  402780:	8fa40008 	lw	a0,8(sp)
  402784:	00621821 	addu	v1,v1,v0
  402788:	00641823 	subu	v1,v1,a0
  40278c:	00651821 	addu	v1,v1,a1
  402790:	afa30004 	sw	v1,4(sp)
  402794:	8fa20000 	lw	v0,0(sp)
  402798:	8fa30004 	lw	v1,4(sp)
  40279c:	8fa40008 	lw	a0,8(sp)
  4027a0:	00431021 	addu	v0,v0,v1
  4027a4:	00441023 	subu	v0,v0,a0
  4027a8:	00451021 	addu	v0,v0,a1
  4027ac:	afa20008 	sw	v0,8(sp)
  4027b0:	8fa30000 	lw	v1,0(sp)
  4027b4:	8fa20004 	lw	v0,4(sp)
  4027b8:	8fa40008 	lw	a0,8(sp)
  4027bc:	00621821 	addu	v1,v1,v0
  4027c0:	00641823 	subu	v1,v1,a0
  4027c4:	00651821 	addu	v1,v1,a1
  4027c8:	afa30000 	sw	v1,0(sp)
  4027cc:	8fa20000 	lw	v0,0(sp)
  4027d0:	8fa30004 	lw	v1,4(sp)
  4027d4:	8fa40008 	lw	a0,8(sp)
  4027d8:	00431021 	addu	v0,v0,v1
  4027dc:	00441023 	subu	v0,v0,a0
  4027e0:	00451021 	addu	v0,v0,a1
  4027e4:	afa20004 	sw	v0,4(sp)
  4027e8:	8fa30000 	lw	v1,0(sp)
  4027ec:	8fa20004 	lw	v0,4(sp)
  4027f0:	8fa40008 	lw	a0,8(sp)
  4027f4:	00621821 	addu	v1,v1,v0
  4027f8:	00641823 	subu	v1,v1,a0
  4027fc:	00651821 	addu	v1,v1,a1
  402800:	afa30008 	sw	v1,8(sp)
  402804:	8fa20000 	lw	v0,0(sp)
  402808:	8fa30004 	lw	v1,4(sp)
  40280c:	8fa40008 	lw	a0,8(sp)
  402810:	00431021 	addu	v0,v0,v1
  402814:	00441023 	subu	v0,v0,a0
  402818:	00451021 	addu	v0,v0,a1
  40281c:	afa20000 	sw	v0,0(sp)
  402820:	8fa30000 	lw	v1,0(sp)
  402824:	8fa20004 	lw	v0,4(sp)
  402828:	8fa40008 	lw	a0,8(sp)
  40282c:	00621821 	addu	v1,v1,v0
  402830:	00641823 	subu	v1,v1,a0
  402834:	00651821 	addu	v1,v1,a1
  402838:	afa30004 	sw	v1,4(sp)
  40283c:	8fa20000 	lw	v0,0(sp)
  402840:	8fa30004 	lw	v1,4(sp)
  402844:	8fa40008 	lw	a0,8(sp)
  402848:	00431021 	addu	v0,v0,v1
  40284c:	00441023 	subu	v0,v0,a0
  402850:	00451021 	addu	v0,v0,a1
  402854:	afa20008 	sw	v0,8(sp)
  402858:	8fa30000 	lw	v1,0(sp)
  40285c:	8fa20004 	lw	v0,4(sp)
  402860:	8fa40008 	lw	a0,8(sp)
  402864:	00621821 	addu	v1,v1,v0
  402868:	00641823 	subu	v1,v1,a0
  40286c:	00651821 	addu	v1,v1,a1
  402870:	24a50001 	addiu	a1,a1,1
  402874:	afa30000 	sw	v1,0(sp)
  402878:	14a6ff8e 	bne	a1,a2,4026b4 <func_6+0x24>
  40287c:	00000000 	nop
  402880:	00002821 	move	a1,zero
  402884:	24060002 	li	a2,2
  402888:	8fa20000 	lw	v0,0(sp)
  40288c:	8fa30004 	lw	v1,4(sp)
  402890:	8fa40008 	lw	a0,8(sp)
  402894:	00431021 	addu	v0,v0,v1
  402898:	00441023 	subu	v0,v0,a0
  40289c:	00451021 	addu	v0,v0,a1
  4028a0:	afa20004 	sw	v0,4(sp)
  4028a4:	8fa30000 	lw	v1,0(sp)
  4028a8:	8fa20004 	lw	v0,4(sp)
  4028ac:	8fa40008 	lw	a0,8(sp)
  4028b0:	00621821 	addu	v1,v1,v0
  4028b4:	00641823 	subu	v1,v1,a0
  4028b8:	00651821 	addu	v1,v1,a1
  4028bc:	afa30000 	sw	v1,0(sp)
  4028c0:	8fa20000 	lw	v0,0(sp)
  4028c4:	8fa30004 	lw	v1,4(sp)
  4028c8:	8fa40008 	lw	a0,8(sp)
  4028cc:	00431021 	addu	v0,v0,v1
  4028d0:	00441023 	subu	v0,v0,a0
  4028d4:	00451021 	addu	v0,v0,a1
  4028d8:	afa20008 	sw	v0,8(sp)
  4028dc:	8fa30000 	lw	v1,0(sp)
  4028e0:	8fa20004 	lw	v0,4(sp)
  4028e4:	8fa40008 	lw	a0,8(sp)
  4028e8:	00621821 	addu	v1,v1,v0
  4028ec:	00641823 	subu	v1,v1,a0
  4028f0:	00651821 	addu	v1,v1,a1
  4028f4:	afa30004 	sw	v1,4(sp)
  4028f8:	8fa20000 	lw	v0,0(sp)
  4028fc:	8fa30004 	lw	v1,4(sp)
  402900:	8fa40008 	lw	a0,8(sp)
  402904:	00431021 	addu	v0,v0,v1
  402908:	00441023 	subu	v0,v0,a0
  40290c:	00451021 	addu	v0,v0,a1
  402910:	afa20004 	sw	v0,4(sp)
  402914:	8fa30000 	lw	v1,0(sp)
  402918:	8fa20004 	lw	v0,4(sp)
  40291c:	8fa40008 	lw	a0,8(sp)
  402920:	00621821 	addu	v1,v1,v0
  402924:	00641823 	subu	v1,v1,a0
  402928:	00651821 	addu	v1,v1,a1
  40292c:	afa30000 	sw	v1,0(sp)
  402930:	8fa20000 	lw	v0,0(sp)
  402934:	8fa30004 	lw	v1,4(sp)
  402938:	8fa40008 	lw	a0,8(sp)
  40293c:	00431021 	addu	v0,v0,v1
  402940:	00441023 	subu	v0,v0,a0
  402944:	00451021 	addu	v0,v0,a1
  402948:	afa20008 	sw	v0,8(sp)
  40294c:	8fa30000 	lw	v1,0(sp)
  402950:	8fa20004 	lw	v0,4(sp)
  402954:	8fa40008 	lw	a0,8(sp)
  402958:	00621821 	addu	v1,v1,v0
  40295c:	00641823 	subu	v1,v1,a0
  402960:	00651821 	addu	v1,v1,a1
  402964:	afa30004 	sw	v1,4(sp)
  402968:	8fa20000 	lw	v0,0(sp)
  40296c:	8fa30004 	lw	v1,4(sp)
  402970:	8fa40008 	lw	a0,8(sp)
  402974:	00431021 	addu	v0,v0,v1
  402978:	00441023 	subu	v0,v0,a0
  40297c:	00451021 	addu	v0,v0,a1
  402980:	afa20000 	sw	v0,0(sp)
  402984:	8fa30000 	lw	v1,0(sp)
  402988:	8fa20004 	lw	v0,4(sp)
  40298c:	8fa40008 	lw	a0,8(sp)
  402990:	00621821 	addu	v1,v1,v0
  402994:	00641823 	subu	v1,v1,a0
  402998:	00651821 	addu	v1,v1,a1
  40299c:	afa30008 	sw	v1,8(sp)
  4029a0:	8fa20000 	lw	v0,0(sp)
  4029a4:	8fa30004 	lw	v1,4(sp)
  4029a8:	8fa40008 	lw	a0,8(sp)
  4029ac:	00431021 	addu	v0,v0,v1
  4029b0:	00441023 	subu	v0,v0,a0
  4029b4:	00451021 	addu	v0,v0,a1
  4029b8:	afa20004 	sw	v0,4(sp)
  4029bc:	8fa30000 	lw	v1,0(sp)
  4029c0:	8fa20004 	lw	v0,4(sp)
  4029c4:	8fa40008 	lw	a0,8(sp)
  4029c8:	00621821 	addu	v1,v1,v0
  4029cc:	00641823 	subu	v1,v1,a0
  4029d0:	00651821 	addu	v1,v1,a1
  4029d4:	afa30000 	sw	v1,0(sp)
  4029d8:	8fa20000 	lw	v0,0(sp)
  4029dc:	8fa30004 	lw	v1,4(sp)
  4029e0:	8fa40008 	lw	a0,8(sp)
  4029e4:	00431021 	addu	v0,v0,v1
  4029e8:	00441023 	subu	v0,v0,a0
  4029ec:	00451021 	addu	v0,v0,a1
  4029f0:	24a50001 	addiu	a1,a1,1
  4029f4:	afa20008 	sw	v0,8(sp)
  4029f8:	14a6ffa3 	bne	a1,a2,402888 <func_6+0x1f8>
  4029fc:	00000000 	nop
  402a00:	00002821 	move	a1,zero
  402a04:	24060002 	li	a2,2
  402a08:	8fa20000 	lw	v0,0(sp)
  402a0c:	8fa30004 	lw	v1,4(sp)
  402a10:	8fa40008 	lw	a0,8(sp)
  402a14:	00431021 	addu	v0,v0,v1
  402a18:	00441023 	subu	v0,v0,a0
  402a1c:	00451021 	addu	v0,v0,a1
  402a20:	afa20008 	sw	v0,8(sp)
  402a24:	8fa30000 	lw	v1,0(sp)
  402a28:	8fa20004 	lw	v0,4(sp)
  402a2c:	8fa40008 	lw	a0,8(sp)
  402a30:	00621821 	addu	v1,v1,v0
  402a34:	00641823 	subu	v1,v1,a0
  402a38:	00651821 	addu	v1,v1,a1
  402a3c:	afa30004 	sw	v1,4(sp)
  402a40:	8fa20000 	lw	v0,0(sp)
  402a44:	8fa30004 	lw	v1,4(sp)
  402a48:	8fa40008 	lw	a0,8(sp)
  402a4c:	00431021 	addu	v0,v0,v1
  402a50:	00441023 	subu	v0,v0,a0
  402a54:	00451021 	addu	v0,v0,a1
  402a58:	afa20000 	sw	v0,0(sp)
  402a5c:	8fa30000 	lw	v1,0(sp)
  402a60:	8fa20004 	lw	v0,4(sp)
  402a64:	8fa40008 	lw	a0,8(sp)
  402a68:	00621821 	addu	v1,v1,v0
  402a6c:	00641823 	subu	v1,v1,a0
  402a70:	00651821 	addu	v1,v1,a1
  402a74:	afa30008 	sw	v1,8(sp)
  402a78:	8fa20000 	lw	v0,0(sp)
  402a7c:	8fa30004 	lw	v1,4(sp)
  402a80:	8fa40008 	lw	a0,8(sp)
  402a84:	00431021 	addu	v0,v0,v1
  402a88:	00441023 	subu	v0,v0,a0
  402a8c:	00451021 	addu	v0,v0,a1
  402a90:	afa20004 	sw	v0,4(sp)
  402a94:	8fa30000 	lw	v1,0(sp)
  402a98:	8fa20004 	lw	v0,4(sp)
  402a9c:	8fa40008 	lw	a0,8(sp)
  402aa0:	00621821 	addu	v1,v1,v0
  402aa4:	00641823 	subu	v1,v1,a0
  402aa8:	00651821 	addu	v1,v1,a1
  402aac:	afa30000 	sw	v1,0(sp)
  402ab0:	8fa20000 	lw	v0,0(sp)
  402ab4:	8fa30004 	lw	v1,4(sp)
  402ab8:	8fa40008 	lw	a0,8(sp)
  402abc:	00431021 	addu	v0,v0,v1
  402ac0:	00441023 	subu	v0,v0,a0
  402ac4:	00451021 	addu	v0,v0,a1
  402ac8:	24a50001 	addiu	a1,a1,1
  402acc:	afa20008 	sw	v0,8(sp)
  402ad0:	14a6ffcd 	bne	a1,a2,402a08 <func_6+0x378>
  402ad4:	00000000 	nop
  402ad8:	00002821 	move	a1,zero
  402adc:	24060002 	li	a2,2
  402ae0:	8fa20000 	lw	v0,0(sp)
  402ae4:	8fa30004 	lw	v1,4(sp)
  402ae8:	8fa40008 	lw	a0,8(sp)
  402aec:	00431021 	addu	v0,v0,v1
  402af0:	00441023 	subu	v0,v0,a0
  402af4:	00451021 	addu	v0,v0,a1
  402af8:	afa20000 	sw	v0,0(sp)
  402afc:	8fa30000 	lw	v1,0(sp)
  402b00:	8fa20004 	lw	v0,4(sp)
  402b04:	8fa40008 	lw	a0,8(sp)
  402b08:	00621821 	addu	v1,v1,v0
  402b0c:	00641823 	subu	v1,v1,a0
  402b10:	00651821 	addu	v1,v1,a1
  402b14:	afa30008 	sw	v1,8(sp)
  402b18:	8fa20000 	lw	v0,0(sp)
  402b1c:	8fa30004 	lw	v1,4(sp)
  402b20:	8fa40008 	lw	a0,8(sp)
  402b24:	00431021 	addu	v0,v0,v1
  402b28:	00441023 	subu	v0,v0,a0
  402b2c:	00451021 	addu	v0,v0,a1
  402b30:	afa20004 	sw	v0,4(sp)
  402b34:	8fa30000 	lw	v1,0(sp)
  402b38:	8fa20004 	lw	v0,4(sp)
  402b3c:	8fa40008 	lw	a0,8(sp)
  402b40:	00621821 	addu	v1,v1,v0
  402b44:	00641823 	subu	v1,v1,a0
  402b48:	00651821 	addu	v1,v1,a1
  402b4c:	afa30000 	sw	v1,0(sp)
  402b50:	8fa20000 	lw	v0,0(sp)
  402b54:	8fa30004 	lw	v1,4(sp)
  402b58:	8fa40008 	lw	a0,8(sp)
  402b5c:	00431021 	addu	v0,v0,v1
  402b60:	00441023 	subu	v0,v0,a0
  402b64:	00451021 	addu	v0,v0,a1
  402b68:	afa20008 	sw	v0,8(sp)
  402b6c:	8fa30000 	lw	v1,0(sp)
  402b70:	8fa20004 	lw	v0,4(sp)
  402b74:	8fa40008 	lw	a0,8(sp)
  402b78:	00621821 	addu	v1,v1,v0
  402b7c:	00641823 	subu	v1,v1,a0
  402b80:	00651821 	addu	v1,v1,a1
  402b84:	afa30004 	sw	v1,4(sp)
  402b88:	8fa20000 	lw	v0,0(sp)
  402b8c:	8fa30004 	lw	v1,4(sp)
  402b90:	8fa40008 	lw	a0,8(sp)
  402b94:	00431021 	addu	v0,v0,v1
  402b98:	00441023 	subu	v0,v0,a0
  402b9c:	00451021 	addu	v0,v0,a1
  402ba0:	afa20000 	sw	v0,0(sp)
  402ba4:	8fa30000 	lw	v1,0(sp)
  402ba8:	8fa20004 	lw	v0,4(sp)
  402bac:	8fa40008 	lw	a0,8(sp)
  402bb0:	00621821 	addu	v1,v1,v0
  402bb4:	00641823 	subu	v1,v1,a0
  402bb8:	00651821 	addu	v1,v1,a1
  402bbc:	afa30004 	sw	v1,4(sp)
  402bc0:	8fa20000 	lw	v0,0(sp)
  402bc4:	8fa30004 	lw	v1,4(sp)
  402bc8:	8fa40008 	lw	a0,8(sp)
  402bcc:	00431021 	addu	v0,v0,v1
  402bd0:	00441023 	subu	v0,v0,a0
  402bd4:	00451021 	addu	v0,v0,a1
  402bd8:	afa20000 	sw	v0,0(sp)
  402bdc:	8fa30000 	lw	v1,0(sp)
  402be0:	8fa20004 	lw	v0,4(sp)
  402be4:	8fa40008 	lw	a0,8(sp)
  402be8:	00621821 	addu	v1,v1,v0
  402bec:	00641823 	subu	v1,v1,a0
  402bf0:	00651821 	addu	v1,v1,a1
  402bf4:	afa30008 	sw	v1,8(sp)
  402bf8:	8fa20000 	lw	v0,0(sp)
  402bfc:	8fa30004 	lw	v1,4(sp)
  402c00:	8fa40008 	lw	a0,8(sp)
  402c04:	00431021 	addu	v0,v0,v1
  402c08:	00441023 	subu	v0,v0,a0
  402c0c:	00451021 	addu	v0,v0,a1
  402c10:	afa20004 	sw	v0,4(sp)
  402c14:	8fa30000 	lw	v1,0(sp)
  402c18:	8fa20004 	lw	v0,4(sp)
  402c1c:	8fa40008 	lw	a0,8(sp)
  402c20:	00621821 	addu	v1,v1,v0
  402c24:	00641823 	subu	v1,v1,a0
  402c28:	00651821 	addu	v1,v1,a1
  402c2c:	afa30000 	sw	v1,0(sp)
  402c30:	8fa20000 	lw	v0,0(sp)
  402c34:	8fa30004 	lw	v1,4(sp)
  402c38:	8fa40008 	lw	a0,8(sp)
  402c3c:	00431021 	addu	v0,v0,v1
  402c40:	00441023 	subu	v0,v0,a0
  402c44:	00451021 	addu	v0,v0,a1
  402c48:	afa20008 	sw	v0,8(sp)
  402c4c:	8fa30000 	lw	v1,0(sp)
  402c50:	8fa20004 	lw	v0,4(sp)
  402c54:	8fa40008 	lw	a0,8(sp)
  402c58:	00621821 	addu	v1,v1,v0
  402c5c:	00641823 	subu	v1,v1,a0
  402c60:	00651821 	addu	v1,v1,a1
  402c64:	afa30004 	sw	v1,4(sp)
  402c68:	8fa20000 	lw	v0,0(sp)
  402c6c:	8fa30004 	lw	v1,4(sp)
  402c70:	8fa40008 	lw	a0,8(sp)
  402c74:	00431021 	addu	v0,v0,v1
  402c78:	00441023 	subu	v0,v0,a0
  402c7c:	00451021 	addu	v0,v0,a1
  402c80:	afa20000 	sw	v0,0(sp)
  402c84:	8fa30000 	lw	v1,0(sp)
  402c88:	8fa20004 	lw	v0,4(sp)
  402c8c:	8fa40008 	lw	a0,8(sp)
  402c90:	00621821 	addu	v1,v1,v0
  402c94:	00641823 	subu	v1,v1,a0
  402c98:	00651821 	addu	v1,v1,a1
  402c9c:	24a50001 	addiu	a1,a1,1
  402ca0:	afa30004 	sw	v1,4(sp)
  402ca4:	14a6ff8e 	bne	a1,a2,402ae0 <func_6+0x450>
  402ca8:	00000000 	nop
  402cac:	8fa20000 	lw	v0,0(sp)
  402cb0:	8fa30004 	lw	v1,4(sp)
  402cb4:	8fa40008 	lw	a0,8(sp)
  402cb8:	00431021 	addu	v0,v0,v1
  402cbc:	00441021 	addu	v0,v0,a0
  402cc0:	03e00008 	jr	ra
  402cc4:	27bd0010 	addiu	sp,sp,16

00402cc8 <func_7>:
  402cc8:	27bdfff0 	addiu	sp,sp,-16
  402ccc:	2402000a 	li	v0,10
  402cd0:	afa20000 	sw	v0,0(sp)
  402cd4:	2403000b 	li	v1,11
  402cd8:	2402000c 	li	v0,12
  402cdc:	afa30004 	sw	v1,4(sp)
  402ce0:	00002821 	move	a1,zero
  402ce4:	afa20008 	sw	v0,8(sp)
  402ce8:	24060002 	li	a2,2
  402cec:	8fa20000 	lw	v0,0(sp)
  402cf0:	8fa30004 	lw	v1,4(sp)
  402cf4:	8fa40008 	lw	a0,8(sp)
  402cf8:	00431021 	addu	v0,v0,v1
  402cfc:	00441023 	subu	v0,v0,a0
  402d00:	00451021 	addu	v0,v0,a1
  402d04:	afa20000 	sw	v0,0(sp)
  402d08:	8fa30000 	lw	v1,0(sp)
  402d0c:	8fa20004 	lw	v0,4(sp)
  402d10:	8fa40008 	lw	a0,8(sp)
  402d14:	00621821 	addu	v1,v1,v0
  402d18:	00641823 	subu	v1,v1,a0
  402d1c:	00651821 	addu	v1,v1,a1
  402d20:	afa30004 	sw	v1,4(sp)
  402d24:	8fa20000 	lw	v0,0(sp)
  402d28:	8fa30004 	lw	v1,4(sp)
  402d2c:	8fa40008 	lw	a0,8(sp)
  402d30:	00431021 	addu	v0,v0,v1
  402d34:	00441023 	subu	v0,v0,a0
  402d38:	00451021 	addu	v0,v0,a1
  402d3c:	afa20008 	sw	v0,8(sp)
  402d40:	8fa30000 	lw	v1,0(sp)
  402d44:	8fa20004 	lw	v0,4(sp)
  402d48:	8fa40008 	lw	a0,8(sp)
  402d4c:	00621821 	addu	v1,v1,v0
  402d50:	00641823 	subu	v1,v1,a0
  402d54:	00651821 	addu	v1,v1,a1
  402d58:	afa30000 	sw	v1,0(sp)
  402d5c:	8fa20000 	lw	v0,0(sp)
  402d60:	8fa30004 	lw	v1,4(sp)
  402d64:	8fa40008 	lw	a0,8(sp)
  402d68:	00431021 	addu	v0,v0,v1
  402d6c:	00441023 	subu	v0,v0,a0
  402d70:	00451021 	addu	v0,v0,a1
  402d74:	afa20004 	sw	v0,4(sp)
  402d78:	8fa30000 	lw	v1,0(sp)
  402d7c:	8fa20004 	lw	v0,4(sp)
  402d80:	8fa40008 	lw	a0,8(sp)
  402d84:	00621821 	addu	v1,v1,v0
  402d88:	00641823 	subu	v1,v1,a0
  402d8c:	00651821 	addu	v1,v1,a1
  402d90:	afa30008 	sw	v1,8(sp)
  402d94:	8fa20000 	lw	v0,0(sp)
  402d98:	8fa30004 	lw	v1,4(sp)
  402d9c:	8fa40008 	lw	a0,8(sp)
  402da0:	00431021 	addu	v0,v0,v1
  402da4:	00441023 	subu	v0,v0,a0
  402da8:	00451021 	addu	v0,v0,a1
  402dac:	afa20000 	sw	v0,0(sp)
  402db0:	8fa30000 	lw	v1,0(sp)
  402db4:	8fa20004 	lw	v0,4(sp)
  402db8:	8fa40008 	lw	a0,8(sp)
  402dbc:	00621821 	addu	v1,v1,v0
  402dc0:	00641823 	subu	v1,v1,a0
  402dc4:	00651821 	addu	v1,v1,a1
  402dc8:	afa30004 	sw	v1,4(sp)
  402dcc:	8fa20000 	lw	v0,0(sp)
  402dd0:	8fa30004 	lw	v1,4(sp)
  402dd4:	8fa40008 	lw	a0,8(sp)
  402dd8:	00431021 	addu	v0,v0,v1
  402ddc:	00441023 	subu	v0,v0,a0
  402de0:	00451021 	addu	v0,v0,a1
  402de4:	afa20008 	sw	v0,8(sp)
  402de8:	8fa30000 	lw	v1,0(sp)
  402dec:	8fa20004 	lw	v0,4(sp)
  402df0:	8fa40008 	lw	a0,8(sp)
  402df4:	00621821 	addu	v1,v1,v0
  402df8:	00641823 	subu	v1,v1,a0
  402dfc:	00651821 	addu	v1,v1,a1
  402e00:	afa30000 	sw	v1,0(sp)
  402e04:	8fa20000 	lw	v0,0(sp)
  402e08:	8fa30004 	lw	v1,4(sp)
  402e0c:	8fa40008 	lw	a0,8(sp)
  402e10:	00431021 	addu	v0,v0,v1
  402e14:	00441023 	subu	v0,v0,a0
  402e18:	00451021 	addu	v0,v0,a1
  402e1c:	afa20004 	sw	v0,4(sp)
  402e20:	8fa30000 	lw	v1,0(sp)
  402e24:	8fa20004 	lw	v0,4(sp)
  402e28:	8fa40008 	lw	a0,8(sp)
  402e2c:	00621821 	addu	v1,v1,v0
  402e30:	00641823 	subu	v1,v1,a0
  402e34:	00651821 	addu	v1,v1,a1
  402e38:	afa30008 	sw	v1,8(sp)
  402e3c:	8fa20000 	lw	v0,0(sp)
  402e40:	8fa30004 	lw	v1,4(sp)
  402e44:	8fa40008 	lw	a0,8(sp)
  402e48:	00431021 	addu	v0,v0,v1
  402e4c:	00441023 	subu	v0,v0,a0
  402e50:	00451021 	addu	v0,v0,a1
  402e54:	afa20000 	sw	v0,0(sp)
  402e58:	8fa30000 	lw	v1,0(sp)
  402e5c:	8fa20004 	lw	v0,4(sp)
  402e60:	8fa40008 	lw	a0,8(sp)
  402e64:	00621821 	addu	v1,v1,v0
  402e68:	00641823 	subu	v1,v1,a0
  402e6c:	00651821 	addu	v1,v1,a1
  402e70:	afa30004 	sw	v1,4(sp)
  402e74:	8fa20000 	lw	v0,0(sp)
  402e78:	8fa30004 	lw	v1,4(sp)
  402e7c:	8fa40008 	lw	a0,8(sp)
  402e80:	00431021 	addu	v0,v0,v1
  402e84:	00441023 	subu	v0,v0,a0
  402e88:	00451021 	addu	v0,v0,a1
  402e8c:	afa20008 	sw	v0,8(sp)
  402e90:	8fa30000 	lw	v1,0(sp)
  402e94:	8fa20004 	lw	v0,4(sp)
  402e98:	8fa40008 	lw	a0,8(sp)
  402e9c:	00621821 	addu	v1,v1,v0
  402ea0:	00641823 	subu	v1,v1,a0
  402ea4:	00651821 	addu	v1,v1,a1
  402ea8:	24a50001 	addiu	a1,a1,1
  402eac:	afa30000 	sw	v1,0(sp)
  402eb0:	14a6ff8e 	bne	a1,a2,402cec <func_7+0x24>
  402eb4:	00000000 	nop
  402eb8:	00002821 	move	a1,zero
  402ebc:	24060002 	li	a2,2
  402ec0:	8fa20000 	lw	v0,0(sp)
  402ec4:	8fa30004 	lw	v1,4(sp)
  402ec8:	8fa40008 	lw	a0,8(sp)
  402ecc:	00431021 	addu	v0,v0,v1
  402ed0:	00441023 	subu	v0,v0,a0
  402ed4:	00451021 	addu	v0,v0,a1
  402ed8:	afa20004 	sw	v0,4(sp)
  402edc:	8fa30000 	lw	v1,0(sp)
  402ee0:	8fa20004 	lw	v0,4(sp)
  402ee4:	8fa40008 	lw	a0,8(sp)
  402ee8:	00621821 	addu	v1,v1,v0
  402eec:	00641823 	subu	v1,v1,a0
  402ef0:	00651821 	addu	v1,v1,a1
  402ef4:	afa30000 	sw	v1,0(sp)
  402ef8:	8fa20000 	lw	v0,0(sp)
  402efc:	8fa30004 	lw	v1,4(sp)
  402f00:	8fa40008 	lw	a0,8(sp)
  402f04:	00431021 	addu	v0,v0,v1
  402f08:	00441023 	subu	v0,v0,a0
  402f0c:	00451021 	addu	v0,v0,a1
  402f10:	afa20008 	sw	v0,8(sp)
  402f14:	8fa30000 	lw	v1,0(sp)
  402f18:	8fa20004 	lw	v0,4(sp)
  402f1c:	8fa40008 	lw	a0,8(sp)
  402f20:	00621821 	addu	v1,v1,v0
  402f24:	00641823 	subu	v1,v1,a0
  402f28:	00651821 	addu	v1,v1,a1
  402f2c:	afa30004 	sw	v1,4(sp)
  402f30:	8fa20000 	lw	v0,0(sp)
  402f34:	8fa30004 	lw	v1,4(sp)
  402f38:	8fa40008 	lw	a0,8(sp)
  402f3c:	00431021 	addu	v0,v0,v1
  402f40:	00441023 	subu	v0,v0,a0
  402f44:	00451021 	addu	v0,v0,a1
  402f48:	afa20004 	sw	v0,4(sp)
  402f4c:	8fa30000 	lw	v1,0(sp)
  402f50:	8fa20004 	lw	v0,4(sp)
  402f54:	8fa40008 	lw	a0,8(sp)
  402f58:	00621821 	addu	v1,v1,v0
  402f5c:	00641823 	subu	v1,v1,a0
  402f60:	00651821 	addu	v1,v1,a1
  402f64:	afa30000 	sw	v1,0(sp)
  402f68:	8fa20000 	lw	v0,0(sp)
  402f6c:	8fa30004 	lw	v1,4(sp)
  402f70:	8fa40008 	lw	a0,8(sp)
  402f74:	00431021 	addu	v0,v0,v1
  402f78:	00441023 	subu	v0,v0,a0
  402f7c:	00451021 	addu	v0,v0,a1
  402f80:	afa20008 	sw	v0,8(sp)
  402f84:	8fa30000 	lw	v1,0(sp)
  402f88:	8fa20004 	lw	v0,4(sp)
  402f8c:	8fa40008 	lw	a0,8(sp)
  402f90:	00621821 	addu	v1,v1,v0
  402f94:	00641823 	subu	v1,v1,a0
  402f98:	00651821 	addu	v1,v1,a1
  402f9c:	afa30004 	sw	v1,4(sp)
  402fa0:	8fa20000 	lw	v0,0(sp)
  402fa4:	8fa30004 	lw	v1,4(sp)
  402fa8:	8fa40008 	lw	a0,8(sp)
  402fac:	00431021 	addu	v0,v0,v1
  402fb0:	00441023 	subu	v0,v0,a0
  402fb4:	00451021 	addu	v0,v0,a1
  402fb8:	afa20000 	sw	v0,0(sp)
  402fbc:	8fa30000 	lw	v1,0(sp)
  402fc0:	8fa20004 	lw	v0,4(sp)
  402fc4:	8fa40008 	lw	a0,8(sp)
  402fc8:	00621821 	addu	v1,v1,v0
  402fcc:	00641823 	subu	v1,v1,a0
  402fd0:	00651821 	addu	v1,v1,a1
  402fd4:	afa30008 	sw	v1,8(sp)
  402fd8:	8fa20000 	lw	v0,0(sp)
  402fdc:	8fa30004 	lw	v1,4(sp)
  402fe0:	8fa40008 	lw	a0,8(sp)
  402fe4:	00431021 	addu	v0,v0,v1
  402fe8:	00441023 	subu	v0,v0,a0
  402fec:	00451021 	addu	v0,v0,a1
  402ff0:	afa20004 	sw	v0,4(sp)
  402ff4:	8fa30000 	lw	v1,0(sp)
  402ff8:	8fa20004 	lw	v0,4(sp)
  402ffc:	8fa40008 	lw	a0,8(sp)
  403000:	00621821 	addu	v1,v1,v0
  403004:	00641823 	subu	v1,v1,a0
  403008:	00651821 	addu	v1,v1,a1
  40300c:	afa30000 	sw	v1,0(sp)
  403010:	8fa20000 	lw	v0,0(sp)
  403014:	8fa30004 	lw	v1,4(sp)
  403018:	8fa40008 	lw	a0,8(sp)
  40301c:	00431021 	addu	v0,v0,v1
  403020:	00441023 	subu	v0,v0,a0
  403024:	00451021 	addu	v0,v0,a1
  403028:	24a50001 	addiu	a1,a1,1
  40302c:	afa20008 	sw	v0,8(sp)
  403030:	14a6ffa3 	bne	a1,a2,402ec0 <func_7+0x1f8>
  403034:	00000000 	nop
  403038:	00002821 	move	a1,zero
  40303c:	24060002 	li	a2,2
  403040:	8fa20000 	lw	v0,0(sp)
  403044:	8fa30004 	lw	v1,4(sp)
  403048:	8fa40008 	lw	a0,8(sp)
  40304c:	00431021 	addu	v0,v0,v1
  403050:	00441023 	subu	v0,v0,a0
  403054:	00451021 	addu	v0,v0,a1
  403058:	afa20008 	sw	v0,8(sp)
  40305c:	8fa30000 	lw	v1,0(sp)
  403060:	8fa20004 	lw	v0,4(sp)
  403064:	8fa40008 	lw	a0,8(sp)
  403068:	00621821 	addu	v1,v1,v0
  40306c:	00641823 	subu	v1,v1,a0
  403070:	00651821 	addu	v1,v1,a1
  403074:	afa30004 	sw	v1,4(sp)
  403078:	8fa20000 	lw	v0,0(sp)
  40307c:	8fa30004 	lw	v1,4(sp)
  403080:	8fa40008 	lw	a0,8(sp)
  403084:	00431021 	addu	v0,v0,v1
  403088:	00441023 	subu	v0,v0,a0
  40308c:	00451021 	addu	v0,v0,a1
  403090:	afa20000 	sw	v0,0(sp)
  403094:	8fa30000 	lw	v1,0(sp)
  403098:	8fa20004 	lw	v0,4(sp)
  40309c:	8fa40008 	lw	a0,8(sp)
  4030a0:	00621821 	addu	v1,v1,v0
  4030a4:	00641823 	subu	v1,v1,a0
  4030a8:	00651821 	addu	v1,v1,a1
  4030ac:	afa30008 	sw	v1,8(sp)
  4030b0:	8fa20000 	lw	v0,0(sp)
  4030b4:	8fa30004 	lw	v1,4(sp)
  4030b8:	8fa40008 	lw	a0,8(sp)
  4030bc:	00431021 	addu	v0,v0,v1
  4030c0:	00441023 	subu	v0,v0,a0
  4030c4:	00451021 	addu	v0,v0,a1
  4030c8:	afa20004 	sw	v0,4(sp)
  4030cc:	8fa30000 	lw	v1,0(sp)
  4030d0:	8fa20004 	lw	v0,4(sp)
  4030d4:	8fa40008 	lw	a0,8(sp)
  4030d8:	00621821 	addu	v1,v1,v0
  4030dc:	00641823 	subu	v1,v1,a0
  4030e0:	00651821 	addu	v1,v1,a1
  4030e4:	afa30000 	sw	v1,0(sp)
  4030e8:	8fa20000 	lw	v0,0(sp)
  4030ec:	8fa30004 	lw	v1,4(sp)
  4030f0:	8fa40008 	lw	a0,8(sp)
  4030f4:	00431021 	addu	v0,v0,v1
  4030f8:	00441023 	subu	v0,v0,a0
  4030fc:	00451021 	addu	v0,v0,a1
  403100:	24a50001 	addiu	a1,a1,1
  403104:	afa20008 	sw	v0,8(sp)
  403108:	14a6ffcd 	bne	a1,a2,403040 <func_7+0x378>
  40310c:	00000000 	nop
  403110:	00002821 	move	a1,zero
  403114:	24060002 	li	a2,2
  403118:	8fa20000 	lw	v0,0(sp)
  40311c:	8fa30004 	lw	v1,4(sp)
  403120:	8fa40008 	lw	a0,8(sp)
  403124:	00431021 	addu	v0,v0,v1
  403128:	00441023 	subu	v0,v0,a0
  40312c:	00451021 	addu	v0,v0,a1
  403130:	afa20000 	sw	v0,0(sp)
  403134:	8fa30000 	lw	v1,0(sp)
  403138:	8fa20004 	lw	v0,4(sp)
  40313c:	8fa40008 	lw	a0,8(sp)
  403140:	00621821 	addu	v1,v1,v0
  403144:	00641823 	subu	v1,v1,a0
  403148:	00651821 	addu	v1,v1,a1
  40314c:	afa30008 	sw	v1,8(sp)
  403150:	8fa20000 	lw	v0,0(sp)
  403154:	8fa30004 	lw	v1,4(sp)
  403158:	8fa40008 	lw	a0,8(sp)
  40315c:	00431021 	addu	v0,v0,v1
  403160:	00441023 	subu	v0,v0,a0
  403164:	00451021 	addu	v0,v0,a1
  403168:	afa20004 	sw	v0,4(sp)
  40316c:	8fa30000 	lw	v1,0(sp)
  403170:	8fa20004 	lw	v0,4(sp)
  403174:	8fa40008 	lw	a0,8(sp)
  403178:	00621821 	addu	v1,v1,v0
  40317c:	00641823 	subu	v1,v1,a0
  403180:	00651821 	addu	v1,v1,a1
  403184:	afa30000 	sw	v1,0(sp)
  403188:	8fa20000 	lw	v0,0(sp)
  40318c:	8fa30004 	lw	v1,4(sp)
  403190:	8fa40008 	lw	a0,8(sp)
  403194:	00431021 	addu	v0,v0,v1
  403198:	00441023 	subu	v0,v0,a0
  40319c:	00451021 	addu	v0,v0,a1
  4031a0:	afa20008 	sw	v0,8(sp)
  4031a4:	8fa30000 	lw	v1,0(sp)
  4031a8:	8fa20004 	lw	v0,4(sp)
  4031ac:	8fa40008 	lw	a0,8(sp)
  4031b0:	00621821 	addu	v1,v1,v0
  4031b4:	00641823 	subu	v1,v1,a0
  4031b8:	00651821 	addu	v1,v1,a1
  4031bc:	afa30004 	sw	v1,4(sp)
  4031c0:	8fa20000 	lw	v0,0(sp)
  4031c4:	8fa30004 	lw	v1,4(sp)
  4031c8:	8fa40008 	lw	a0,8(sp)
  4031cc:	00431021 	addu	v0,v0,v1
  4031d0:	00441023 	subu	v0,v0,a0
  4031d4:	00451021 	addu	v0,v0,a1
  4031d8:	afa20000 	sw	v0,0(sp)
  4031dc:	8fa30000 	lw	v1,0(sp)
  4031e0:	8fa20004 	lw	v0,4(sp)
  4031e4:	8fa40008 	lw	a0,8(sp)
  4031e8:	00621821 	addu	v1,v1,v0
  4031ec:	00641823 	subu	v1,v1,a0
  4031f0:	00651821 	addu	v1,v1,a1
  4031f4:	afa30004 	sw	v1,4(sp)
  4031f8:	8fa20000 	lw	v0,0(sp)
  4031fc:	8fa30004 	lw	v1,4(sp)
  403200:	8fa40008 	lw	a0,8(sp)
  403204:	00431021 	addu	v0,v0,v1
  403208:	00441023 	subu	v0,v0,a0
  40320c:	00451021 	addu	v0,v0,a1
  403210:	afa20000 	sw	v0,0(sp)
  403214:	8fa30000 	lw	v1,0(sp)
  403218:	8fa20004 	lw	v0,4(sp)
  40321c:	8fa40008 	lw	a0,8(sp)
  403220:	00621821 	addu	v1,v1,v0
  403224:	00641823 	subu	v1,v1,a0
  403228:	00651821 	addu	v1,v1,a1
  40322c:	afa30008 	sw	v1,8(sp)
  403230:	8fa20000 	lw	v0,0(sp)
  403234:	8fa30004 	lw	v1,4(sp)
  403238:	8fa40008 	lw	a0,8(sp)
  40323c:	00431021 	addu	v0,v0,v1
  403240:	00441023 	subu	v0,v0,a0
  403244:	00451021 	addu	v0,v0,a1
  403248:	afa20004 	sw	v0,4(sp)
  40324c:	8fa30000 	lw	v1,0(sp)
  403250:	8fa20004 	lw	v0,4(sp)
  403254:	8fa40008 	lw	a0,8(sp)
  403258:	00621821 	addu	v1,v1,v0
  40325c:	00641823 	subu	v1,v1,a0
  403260:	00651821 	addu	v1,v1,a1
  403264:	afa30000 	sw	v1,0(sp)
  403268:	8fa20000 	lw	v0,0(sp)
  40326c:	8fa30004 	lw	v1,4(sp)
  403270:	8fa40008 	lw	a0,8(sp)
  403274:	00431021 	addu	v0,v0,v1
  403278:	00441023 	subu	v0,v0,a0
  40327c:	00451021 	addu	v0,v0,a1
  403280:	afa20008 	sw	v0,8(sp)
  403284:	8fa30000 	lw	v1,0(sp)
  403288:	8fa20004 	lw	v0,4(sp)
  40328c:	8fa40008 	lw	a0,8(sp)
  403290:	00621821 	addu	v1,v1,v0
  403294:	00641823 	subu	v1,v1,a0
  403298:	00651821 	addu	v1,v1,a1
  40329c:	afa30004 	sw	v1,4(sp)
  4032a0:	8fa20000 	lw	v0,0(sp)
  4032a4:	8fa30004 	lw	v1,4(sp)
  4032a8:	8fa40008 	lw	a0,8(sp)
  4032ac:	00431021 	addu	v0,v0,v1
  4032b0:	00441023 	subu	v0,v0,a0
  4032b4:	00451021 	addu	v0,v0,a1
  4032b8:	afa20000 	sw	v0,0(sp)
  4032bc:	8fa30000 	lw	v1,0(sp)
  4032c0:	8fa20004 	lw	v0,4(sp)
  4032c4:	8fa40008 	lw	a0,8(sp)
  4032c8:	00621821 	addu	v1,v1,v0
  4032cc:	00641823 	subu	v1,v1,a0
  4032d0:	00651821 	addu	v1,v1,a1
  4032d4:	24a50001 	addiu	a1,a1,1
  4032d8:	afa30004 	sw	v1,4(sp)
  4032dc:	14a6ff8e 	bne	a1,a2,403118 <func_7+0x450>
  4032e0:	00000000 	nop
  4032e4:	8fa20000 	lw	v0,0(sp)
  4032e8:	8fa30004 	lw	v1,4(sp)
  4032ec:	8fa40008 	lw	a0,8(sp)
  4032f0:	00431021 	addu	v0,v0,v1
  4032f4:	00441021 	addu	v0,v0,a0
  4032f8:	03e00008 	jr	ra
  4032fc:	27bd0010 	addiu	sp,sp,16

00403300 <func_8>:
  403300:	27bdfff0 	addiu	sp,sp,-16
  403304:	2402000a 	li	v0,10
  403308:	afa20000 	sw	v0,0(sp)
  40330c:	2403000b 	li	v1,11
  403310:	2402000c 	li	v0,12
  403314:	afa30004 	sw	v1,4(sp)
  403318:	00002821 	move	a1,zero
  40331c:	afa20008 	sw	v0,8(sp)
  403320:	24060002 	li	a2,2
  403324:	8fa20000 	lw	v0,0(sp)
  403328:	8fa30004 	lw	v1,4(sp)
  40332c:	8fa40008 	lw	a0,8(sp)
  403330:	00431021 	addu	v0,v0,v1
  403334:	00441023 	subu	v0,v0,a0
  403338:	00451021 	addu	v0,v0,a1
  40333c:	afa20000 	sw	v0,0(sp)
  403340:	8fa30000 	lw	v1,0(sp)
  403344:	8fa20004 	lw	v0,4(sp)
  403348:	8fa40008 	lw	a0,8(sp)
  40334c:	00621821 	addu	v1,v1,v0
  403350:	00641823 	subu	v1,v1,a0
  403354:	00651821 	addu	v1,v1,a1
  403358:	afa30004 	sw	v1,4(sp)
  40335c:	8fa20000 	lw	v0,0(sp)
  403360:	8fa30004 	lw	v1,4(sp)
  403364:	8fa40008 	lw	a0,8(sp)
  403368:	00431021 	addu	v0,v0,v1
  40336c:	00441023 	subu	v0,v0,a0
  403370:	00451021 	addu	v0,v0,a1
  403374:	afa20008 	sw	v0,8(sp)
  403378:	8fa30000 	lw	v1,0(sp)
  40337c:	8fa20004 	lw	v0,4(sp)
  403380:	8fa40008 	lw	a0,8(sp)
  403384:	00621821 	addu	v1,v1,v0
  403388:	00641823 	subu	v1,v1,a0
  40338c:	00651821 	addu	v1,v1,a1
  403390:	afa30000 	sw	v1,0(sp)
  403394:	8fa20000 	lw	v0,0(sp)
  403398:	8fa30004 	lw	v1,4(sp)
  40339c:	8fa40008 	lw	a0,8(sp)
  4033a0:	00431021 	addu	v0,v0,v1
  4033a4:	00441023 	subu	v0,v0,a0
  4033a8:	00451021 	addu	v0,v0,a1
  4033ac:	afa20004 	sw	v0,4(sp)
  4033b0:	8fa30000 	lw	v1,0(sp)
  4033b4:	8fa20004 	lw	v0,4(sp)
  4033b8:	8fa40008 	lw	a0,8(sp)
  4033bc:	00621821 	addu	v1,v1,v0
  4033c0:	00641823 	subu	v1,v1,a0
  4033c4:	00651821 	addu	v1,v1,a1
  4033c8:	afa30008 	sw	v1,8(sp)
  4033cc:	8fa20000 	lw	v0,0(sp)
  4033d0:	8fa30004 	lw	v1,4(sp)
  4033d4:	8fa40008 	lw	a0,8(sp)
  4033d8:	00431021 	addu	v0,v0,v1
  4033dc:	00441023 	subu	v0,v0,a0
  4033e0:	00451021 	addu	v0,v0,a1
  4033e4:	afa20000 	sw	v0,0(sp)
  4033e8:	8fa30000 	lw	v1,0(sp)
  4033ec:	8fa20004 	lw	v0,4(sp)
  4033f0:	8fa40008 	lw	a0,8(sp)
  4033f4:	00621821 	addu	v1,v1,v0
  4033f8:	00641823 	subu	v1,v1,a0
  4033fc:	00651821 	addu	v1,v1,a1
  403400:	afa30004 	sw	v1,4(sp)
  403404:	8fa20000 	lw	v0,0(sp)
  403408:	8fa30004 	lw	v1,4(sp)
  40340c:	8fa40008 	lw	a0,8(sp)
  403410:	00431021 	addu	v0,v0,v1
  403414:	00441023 	subu	v0,v0,a0
  403418:	00451021 	addu	v0,v0,a1
  40341c:	afa20008 	sw	v0,8(sp)
  403420:	8fa30000 	lw	v1,0(sp)
  403424:	8fa20004 	lw	v0,4(sp)
  403428:	8fa40008 	lw	a0,8(sp)
  40342c:	00621821 	addu	v1,v1,v0
  403430:	00641823 	subu	v1,v1,a0
  403434:	00651821 	addu	v1,v1,a1
  403438:	afa30000 	sw	v1,0(sp)
  40343c:	8fa20000 	lw	v0,0(sp)
  403440:	8fa30004 	lw	v1,4(sp)
  403444:	8fa40008 	lw	a0,8(sp)
  403448:	00431021 	addu	v0,v0,v1
  40344c:	00441023 	subu	v0,v0,a0
  403450:	00451021 	addu	v0,v0,a1
  403454:	afa20004 	sw	v0,4(sp)
  403458:	8fa30000 	lw	v1,0(sp)
  40345c:	8fa20004 	lw	v0,4(sp)
  403460:	8fa40008 	lw	a0,8(sp)
  403464:	00621821 	addu	v1,v1,v0
  403468:	00641823 	subu	v1,v1,a0
  40346c:	00651821 	addu	v1,v1,a1
  403470:	afa30008 	sw	v1,8(sp)
  403474:	8fa20000 	lw	v0,0(sp)
  403478:	8fa30004 	lw	v1,4(sp)
  40347c:	8fa40008 	lw	a0,8(sp)
  403480:	00431021 	addu	v0,v0,v1
  403484:	00441023 	subu	v0,v0,a0
  403488:	00451021 	addu	v0,v0,a1
  40348c:	afa20000 	sw	v0,0(sp)
  403490:	8fa30000 	lw	v1,0(sp)
  403494:	8fa20004 	lw	v0,4(sp)
  403498:	8fa40008 	lw	a0,8(sp)
  40349c:	00621821 	addu	v1,v1,v0
  4034a0:	00641823 	subu	v1,v1,a0
  4034a4:	00651821 	addu	v1,v1,a1
  4034a8:	afa30004 	sw	v1,4(sp)
  4034ac:	8fa20000 	lw	v0,0(sp)
  4034b0:	8fa30004 	lw	v1,4(sp)
  4034b4:	8fa40008 	lw	a0,8(sp)
  4034b8:	00431021 	addu	v0,v0,v1
  4034bc:	00441023 	subu	v0,v0,a0
  4034c0:	00451021 	addu	v0,v0,a1
  4034c4:	afa20008 	sw	v0,8(sp)
  4034c8:	8fa30000 	lw	v1,0(sp)
  4034cc:	8fa20004 	lw	v0,4(sp)
  4034d0:	8fa40008 	lw	a0,8(sp)
  4034d4:	00621821 	addu	v1,v1,v0
  4034d8:	00641823 	subu	v1,v1,a0
  4034dc:	00651821 	addu	v1,v1,a1
  4034e0:	24a50001 	addiu	a1,a1,1
  4034e4:	afa30000 	sw	v1,0(sp)
  4034e8:	14a6ff8e 	bne	a1,a2,403324 <func_8+0x24>
  4034ec:	00000000 	nop
  4034f0:	00002821 	move	a1,zero
  4034f4:	24060002 	li	a2,2
  4034f8:	8fa20000 	lw	v0,0(sp)
  4034fc:	8fa30004 	lw	v1,4(sp)
  403500:	8fa40008 	lw	a0,8(sp)
  403504:	00431021 	addu	v0,v0,v1
  403508:	00441023 	subu	v0,v0,a0
  40350c:	00451021 	addu	v0,v0,a1
  403510:	afa20004 	sw	v0,4(sp)
  403514:	8fa30000 	lw	v1,0(sp)
  403518:	8fa20004 	lw	v0,4(sp)
  40351c:	8fa40008 	lw	a0,8(sp)
  403520:	00621821 	addu	v1,v1,v0
  403524:	00641823 	subu	v1,v1,a0
  403528:	00651821 	addu	v1,v1,a1
  40352c:	afa30000 	sw	v1,0(sp)
  403530:	8fa20000 	lw	v0,0(sp)
  403534:	8fa30004 	lw	v1,4(sp)
  403538:	8fa40008 	lw	a0,8(sp)
  40353c:	00431021 	addu	v0,v0,v1
  403540:	00441023 	subu	v0,v0,a0
  403544:	00451021 	addu	v0,v0,a1
  403548:	afa20008 	sw	v0,8(sp)
  40354c:	8fa30000 	lw	v1,0(sp)
  403550:	8fa20004 	lw	v0,4(sp)
  403554:	8fa40008 	lw	a0,8(sp)
  403558:	00621821 	addu	v1,v1,v0
  40355c:	00641823 	subu	v1,v1,a0
  403560:	00651821 	addu	v1,v1,a1
  403564:	afa30004 	sw	v1,4(sp)
  403568:	8fa20000 	lw	v0,0(sp)
  40356c:	8fa30004 	lw	v1,4(sp)
  403570:	8fa40008 	lw	a0,8(sp)
  403574:	00431021 	addu	v0,v0,v1
  403578:	00441023 	subu	v0,v0,a0
  40357c:	00451021 	addu	v0,v0,a1
  403580:	afa20004 	sw	v0,4(sp)
  403584:	8fa30000 	lw	v1,0(sp)
  403588:	8fa20004 	lw	v0,4(sp)
  40358c:	8fa40008 	lw	a0,8(sp)
  403590:	00621821 	addu	v1,v1,v0
  403594:	00641823 	subu	v1,v1,a0
  403598:	00651821 	addu	v1,v1,a1
  40359c:	afa30000 	sw	v1,0(sp)
  4035a0:	8fa20000 	lw	v0,0(sp)
  4035a4:	8fa30004 	lw	v1,4(sp)
  4035a8:	8fa40008 	lw	a0,8(sp)
  4035ac:	00431021 	addu	v0,v0,v1
  4035b0:	00441023 	subu	v0,v0,a0
  4035b4:	00451021 	addu	v0,v0,a1
  4035b8:	afa20008 	sw	v0,8(sp)
  4035bc:	8fa30000 	lw	v1,0(sp)
  4035c0:	8fa20004 	lw	v0,4(sp)
  4035c4:	8fa40008 	lw	a0,8(sp)
  4035c8:	00621821 	addu	v1,v1,v0
  4035cc:	00641823 	subu	v1,v1,a0
  4035d0:	00651821 	addu	v1,v1,a1
  4035d4:	afa30004 	sw	v1,4(sp)
  4035d8:	8fa20000 	lw	v0,0(sp)
  4035dc:	8fa30004 	lw	v1,4(sp)
  4035e0:	8fa40008 	lw	a0,8(sp)
  4035e4:	00431021 	addu	v0,v0,v1
  4035e8:	00441023 	subu	v0,v0,a0
  4035ec:	00451021 	addu	v0,v0,a1
  4035f0:	afa20000 	sw	v0,0(sp)
  4035f4:	8fa30000 	lw	v1,0(sp)
  4035f8:	8fa20004 	lw	v0,4(sp)
  4035fc:	8fa40008 	lw	a0,8(sp)
  403600:	00621821 	addu	v1,v1,v0
  403604:	00641823 	subu	v1,v1,a0
  403608:	00651821 	addu	v1,v1,a1
  40360c:	afa30008 	sw	v1,8(sp)
  403610:	8fa20000 	lw	v0,0(sp)
  403614:	8fa30004 	lw	v1,4(sp)
  403618:	8fa40008 	lw	a0,8(sp)
  40361c:	00431021 	addu	v0,v0,v1
  403620:	00441023 	subu	v0,v0,a0
  403624:	00451021 	addu	v0,v0,a1
  403628:	afa20004 	sw	v0,4(sp)
  40362c:	8fa30000 	lw	v1,0(sp)
  403630:	8fa20004 	lw	v0,4(sp)
  403634:	8fa40008 	lw	a0,8(sp)
  403638:	00621821 	addu	v1,v1,v0
  40363c:	00641823 	subu	v1,v1,a0
  403640:	00651821 	addu	v1,v1,a1
  403644:	afa30000 	sw	v1,0(sp)
  403648:	8fa20000 	lw	v0,0(sp)
  40364c:	8fa30004 	lw	v1,4(sp)
  403650:	8fa40008 	lw	a0,8(sp)
  403654:	00431021 	addu	v0,v0,v1
  403658:	00441023 	subu	v0,v0,a0
  40365c:	00451021 	addu	v0,v0,a1
  403660:	24a50001 	addiu	a1,a1,1
  403664:	afa20008 	sw	v0,8(sp)
  403668:	14a6ffa3 	bne	a1,a2,4034f8 <func_8+0x1f8>
  40366c:	00000000 	nop
  403670:	00002821 	move	a1,zero
  403674:	24060002 	li	a2,2
  403678:	8fa20000 	lw	v0,0(sp)
  40367c:	8fa30004 	lw	v1,4(sp)
  403680:	8fa40008 	lw	a0,8(sp)
  403684:	00431021 	addu	v0,v0,v1
  403688:	00441023 	subu	v0,v0,a0
  40368c:	00451021 	addu	v0,v0,a1
  403690:	afa20008 	sw	v0,8(sp)
  403694:	8fa30000 	lw	v1,0(sp)
  403698:	8fa20004 	lw	v0,4(sp)
  40369c:	8fa40008 	lw	a0,8(sp)
  4036a0:	00621821 	addu	v1,v1,v0
  4036a4:	00641823 	subu	v1,v1,a0
  4036a8:	00651821 	addu	v1,v1,a1
  4036ac:	afa30004 	sw	v1,4(sp)
  4036b0:	8fa20000 	lw	v0,0(sp)
  4036b4:	8fa30004 	lw	v1,4(sp)
  4036b8:	8fa40008 	lw	a0,8(sp)
  4036bc:	00431021 	addu	v0,v0,v1
  4036c0:	00441023 	subu	v0,v0,a0
  4036c4:	00451021 	addu	v0,v0,a1
  4036c8:	afa20000 	sw	v0,0(sp)
  4036cc:	8fa30000 	lw	v1,0(sp)
  4036d0:	8fa20004 	lw	v0,4(sp)
  4036d4:	8fa40008 	lw	a0,8(sp)
  4036d8:	00621821 	addu	v1,v1,v0
  4036dc:	00641823 	subu	v1,v1,a0
  4036e0:	00651821 	addu	v1,v1,a1
  4036e4:	afa30008 	sw	v1,8(sp)
  4036e8:	8fa20000 	lw	v0,0(sp)
  4036ec:	8fa30004 	lw	v1,4(sp)
  4036f0:	8fa40008 	lw	a0,8(sp)
  4036f4:	00431021 	addu	v0,v0,v1
  4036f8:	00441023 	subu	v0,v0,a0
  4036fc:	00451021 	addu	v0,v0,a1
  403700:	afa20004 	sw	v0,4(sp)
  403704:	8fa30000 	lw	v1,0(sp)
  403708:	8fa20004 	lw	v0,4(sp)
  40370c:	8fa40008 	lw	a0,8(sp)
  403710:	00621821 	addu	v1,v1,v0
  403714:	00641823 	subu	v1,v1,a0
  403718:	00651821 	addu	v1,v1,a1
  40371c:	afa30000 	sw	v1,0(sp)
  403720:	8fa20000 	lw	v0,0(sp)
  403724:	8fa30004 	lw	v1,4(sp)
  403728:	8fa40008 	lw	a0,8(sp)
  40372c:	00431021 	addu	v0,v0,v1
  403730:	00441023 	subu	v0,v0,a0
  403734:	00451021 	addu	v0,v0,a1
  403738:	24a50001 	addiu	a1,a1,1
  40373c:	afa20008 	sw	v0,8(sp)
  403740:	14a6ffcd 	bne	a1,a2,403678 <func_8+0x378>
  403744:	00000000 	nop
  403748:	00002821 	move	a1,zero
  40374c:	24060002 	li	a2,2
  403750:	8fa20000 	lw	v0,0(sp)
  403754:	8fa30004 	lw	v1,4(sp)
  403758:	8fa40008 	lw	a0,8(sp)
  40375c:	00431021 	addu	v0,v0,v1
  403760:	00441023 	subu	v0,v0,a0
  403764:	00451021 	addu	v0,v0,a1
  403768:	afa20000 	sw	v0,0(sp)
  40376c:	8fa30000 	lw	v1,0(sp)
  403770:	8fa20004 	lw	v0,4(sp)
  403774:	8fa40008 	lw	a0,8(sp)
  403778:	00621821 	addu	v1,v1,v0
  40377c:	00641823 	subu	v1,v1,a0
  403780:	00651821 	addu	v1,v1,a1
  403784:	afa30008 	sw	v1,8(sp)
  403788:	8fa20000 	lw	v0,0(sp)
  40378c:	8fa30004 	lw	v1,4(sp)
  403790:	8fa40008 	lw	a0,8(sp)
  403794:	00431021 	addu	v0,v0,v1
  403798:	00441023 	subu	v0,v0,a0
  40379c:	00451021 	addu	v0,v0,a1
  4037a0:	afa20004 	sw	v0,4(sp)
  4037a4:	8fa30000 	lw	v1,0(sp)
  4037a8:	8fa20004 	lw	v0,4(sp)
  4037ac:	8fa40008 	lw	a0,8(sp)
  4037b0:	00621821 	addu	v1,v1,v0
  4037b4:	00641823 	subu	v1,v1,a0
  4037b8:	00651821 	addu	v1,v1,a1
  4037bc:	afa30000 	sw	v1,0(sp)
  4037c0:	8fa20000 	lw	v0,0(sp)
  4037c4:	8fa30004 	lw	v1,4(sp)
  4037c8:	8fa40008 	lw	a0,8(sp)
  4037cc:	00431021 	addu	v0,v0,v1
  4037d0:	00441023 	subu	v0,v0,a0
  4037d4:	00451021 	addu	v0,v0,a1
  4037d8:	afa20008 	sw	v0,8(sp)
  4037dc:	8fa30000 	lw	v1,0(sp)
  4037e0:	8fa20004 	lw	v0,4(sp)
  4037e4:	8fa40008 	lw	a0,8(sp)
  4037e8:	00621821 	addu	v1,v1,v0
  4037ec:	00641823 	subu	v1,v1,a0
  4037f0:	00651821 	addu	v1,v1,a1
  4037f4:	afa30004 	sw	v1,4(sp)
  4037f8:	8fa20000 	lw	v0,0(sp)
  4037fc:	8fa30004 	lw	v1,4(sp)
  403800:	8fa40008 	lw	a0,8(sp)
  403804:	00431021 	addu	v0,v0,v1
  403808:	00441023 	subu	v0,v0,a0
  40380c:	00451021 	addu	v0,v0,a1
  403810:	afa20000 	sw	v0,0(sp)
  403814:	8fa30000 	lw	v1,0(sp)
  403818:	8fa20004 	lw	v0,4(sp)
  40381c:	8fa40008 	lw	a0,8(sp)
  403820:	00621821 	addu	v1,v1,v0
  403824:	00641823 	subu	v1,v1,a0
  403828:	00651821 	addu	v1,v1,a1
  40382c:	afa30004 	sw	v1,4(sp)
  403830:	8fa20000 	lw	v0,0(sp)
  403834:	8fa30004 	lw	v1,4(sp)
  403838:	8fa40008 	lw	a0,8(sp)
  40383c:	00431021 	addu	v0,v0,v1
  403840:	00441023 	subu	v0,v0,a0
  403844:	00451021 	addu	v0,v0,a1
  403848:	afa20000 	sw	v0,0(sp)
  40384c:	8fa30000 	lw	v1,0(sp)
  403850:	8fa20004 	lw	v0,4(sp)
  403854:	8fa40008 	lw	a0,8(sp)
  403858:	00621821 	addu	v1,v1,v0
  40385c:	00641823 	subu	v1,v1,a0
  403860:	00651821 	addu	v1,v1,a1
  403864:	afa30008 	sw	v1,8(sp)
  403868:	8fa20000 	lw	v0,0(sp)
  40386c:	8fa30004 	lw	v1,4(sp)
  403870:	8fa40008 	lw	a0,8(sp)
  403874:	00431021 	addu	v0,v0,v1
  403878:	00441023 	subu	v0,v0,a0
  40387c:	00451021 	addu	v0,v0,a1
  403880:	afa20004 	sw	v0,4(sp)
  403884:	8fa30000 	lw	v1,0(sp)
  403888:	8fa20004 	lw	v0,4(sp)
  40388c:	8fa40008 	lw	a0,8(sp)
  403890:	00621821 	addu	v1,v1,v0
  403894:	00641823 	subu	v1,v1,a0
  403898:	00651821 	addu	v1,v1,a1
  40389c:	afa30000 	sw	v1,0(sp)
  4038a0:	8fa20000 	lw	v0,0(sp)
  4038a4:	8fa30004 	lw	v1,4(sp)
  4038a8:	8fa40008 	lw	a0,8(sp)
  4038ac:	00431021 	addu	v0,v0,v1
  4038b0:	00441023 	subu	v0,v0,a0
  4038b4:	00451021 	addu	v0,v0,a1
  4038b8:	afa20008 	sw	v0,8(sp)
  4038bc:	8fa30000 	lw	v1,0(sp)
  4038c0:	8fa20004 	lw	v0,4(sp)
  4038c4:	8fa40008 	lw	a0,8(sp)
  4038c8:	00621821 	addu	v1,v1,v0
  4038cc:	00641823 	subu	v1,v1,a0
  4038d0:	00651821 	addu	v1,v1,a1
  4038d4:	afa30004 	sw	v1,4(sp)
  4038d8:	8fa20000 	lw	v0,0(sp)
  4038dc:	8fa30004 	lw	v1,4(sp)
  4038e0:	8fa40008 	lw	a0,8(sp)
  4038e4:	00431021 	addu	v0,v0,v1
  4038e8:	00441023 	subu	v0,v0,a0
  4038ec:	00451021 	addu	v0,v0,a1
  4038f0:	afa20000 	sw	v0,0(sp)
  4038f4:	8fa30000 	lw	v1,0(sp)
  4038f8:	8fa20004 	lw	v0,4(sp)
  4038fc:	8fa40008 	lw	a0,8(sp)
  403900:	00621821 	addu	v1,v1,v0
  403904:	00641823 	subu	v1,v1,a0
  403908:	00651821 	addu	v1,v1,a1
  40390c:	24a50001 	addiu	a1,a1,1
  403910:	afa30004 	sw	v1,4(sp)
  403914:	14a6ff8e 	bne	a1,a2,403750 <func_8+0x450>
  403918:	00000000 	nop
  40391c:	8fa20000 	lw	v0,0(sp)
  403920:	8fa30004 	lw	v1,4(sp)
  403924:	8fa40008 	lw	a0,8(sp)
  403928:	00431021 	addu	v0,v0,v1
  40392c:	00441021 	addu	v0,v0,a0
  403930:	03e00008 	jr	ra
  403934:	27bd0010 	addiu	sp,sp,16

00403938 <func_9>:
  403938:	27bdfff0 	addiu	sp,sp,-16
  40393c:	2402000a 	li	v0,10
  403940:	afa20000 	sw	v0,0(sp)
  403944:	2403000b 	li	v1,11
  403948:	2402000c 	li	v0,12
  40394c:	afa30004 	sw	v1,4(sp)
  403950:	00002821 	move	a1,zero
  403954:	afa20008 	sw	v0,8(sp)
  403958:	24060002 	li	a2,2
  40395c:	8fa20000 	lw	v0,0(sp)
  403960:	8fa30004 	lw	v1,4(sp)
  403964:	8fa40008 	lw	a0,8(sp)
  403968:	00431021 	addu	v0,v0,v1
  40396c:	00441023 	subu	v0,v0,a0
  403970:	00451021 	addu	v0,v0,a1
  403974:	afa20000 	sw	v0,0(sp)
  403978:	8fa30000 	lw	v1,0(sp)
  40397c:	8fa20004 	lw	v0,4(sp)
  403980:	8fa40008 	lw	a0,8(sp)
  403984:	00621821 	addu	v1,v1,v0
  403988:	00641823 	subu	v1,v1,a0
  40398c:	00651821 	addu	v1,v1,a1
  403990:	afa30004 	sw	v1,4(sp)
  403994:	8fa20000 	lw	v0,0(sp)
  403998:	8fa30004 	lw	v1,4(sp)
  40399c:	8fa40008 	lw	a0,8(sp)
  4039a0:	00431021 	addu	v0,v0,v1
  4039a4:	00441023 	subu	v0,v0,a0
  4039a8:	00451021 	addu	v0,v0,a1
  4039ac:	afa20008 	sw	v0,8(sp)
  4039b0:	8fa30000 	lw	v1,0(sp)
  4039b4:	8fa20004 	lw	v0,4(sp)
  4039b8:	8fa40008 	lw	a0,8(sp)
  4039bc:	00621821 	addu	v1,v1,v0
  4039c0:	00641823 	subu	v1,v1,a0
  4039c4:	00651821 	addu	v1,v1,a1
  4039c8:	afa30000 	sw	v1,0(sp)
  4039cc:	8fa20000 	lw	v0,0(sp)
  4039d0:	8fa30004 	lw	v1,4(sp)
  4039d4:	8fa40008 	lw	a0,8(sp)
  4039d8:	00431021 	addu	v0,v0,v1
  4039dc:	00441023 	subu	v0,v0,a0
  4039e0:	00451021 	addu	v0,v0,a1
  4039e4:	afa20004 	sw	v0,4(sp)
  4039e8:	8fa30000 	lw	v1,0(sp)
  4039ec:	8fa20004 	lw	v0,4(sp)
  4039f0:	8fa40008 	lw	a0,8(sp)
  4039f4:	00621821 	addu	v1,v1,v0
  4039f8:	00641823 	subu	v1,v1,a0
  4039fc:	00651821 	addu	v1,v1,a1
  403a00:	afa30008 	sw	v1,8(sp)
  403a04:	8fa20000 	lw	v0,0(sp)
  403a08:	8fa30004 	lw	v1,4(sp)
  403a0c:	8fa40008 	lw	a0,8(sp)
  403a10:	00431021 	addu	v0,v0,v1
  403a14:	00441023 	subu	v0,v0,a0
  403a18:	00451021 	addu	v0,v0,a1
  403a1c:	afa20000 	sw	v0,0(sp)
  403a20:	8fa30000 	lw	v1,0(sp)
  403a24:	8fa20004 	lw	v0,4(sp)
  403a28:	8fa40008 	lw	a0,8(sp)
  403a2c:	00621821 	addu	v1,v1,v0
  403a30:	00641823 	subu	v1,v1,a0
  403a34:	00651821 	addu	v1,v1,a1
  403a38:	afa30004 	sw	v1,4(sp)
  403a3c:	8fa20000 	lw	v0,0(sp)
  403a40:	8fa30004 	lw	v1,4(sp)
  403a44:	8fa40008 	lw	a0,8(sp)
  403a48:	00431021 	addu	v0,v0,v1
  403a4c:	00441023 	subu	v0,v0,a0
  403a50:	00451021 	addu	v0,v0,a1
  403a54:	afa20008 	sw	v0,8(sp)
  403a58:	8fa30000 	lw	v1,0(sp)
  403a5c:	8fa20004 	lw	v0,4(sp)
  403a60:	8fa40008 	lw	a0,8(sp)
  403a64:	00621821 	addu	v1,v1,v0
  403a68:	00641823 	subu	v1,v1,a0
  403a6c:	00651821 	addu	v1,v1,a1
  403a70:	afa30000 	sw	v1,0(sp)
  403a74:	8fa20000 	lw	v0,0(sp)
  403a78:	8fa30004 	lw	v1,4(sp)
  403a7c:	8fa40008 	lw	a0,8(sp)
  403a80:	00431021 	addu	v0,v0,v1
  403a84:	00441023 	subu	v0,v0,a0
  403a88:	00451021 	addu	v0,v0,a1
  403a8c:	afa20004 	sw	v0,4(sp)
  403a90:	8fa30000 	lw	v1,0(sp)
  403a94:	8fa20004 	lw	v0,4(sp)
  403a98:	8fa40008 	lw	a0,8(sp)
  403a9c:	00621821 	addu	v1,v1,v0
  403aa0:	00641823 	subu	v1,v1,a0
  403aa4:	00651821 	addu	v1,v1,a1
  403aa8:	afa30008 	sw	v1,8(sp)
  403aac:	8fa20000 	lw	v0,0(sp)
  403ab0:	8fa30004 	lw	v1,4(sp)
  403ab4:	8fa40008 	lw	a0,8(sp)
  403ab8:	00431021 	addu	v0,v0,v1
  403abc:	00441023 	subu	v0,v0,a0
  403ac0:	00451021 	addu	v0,v0,a1
  403ac4:	afa20000 	sw	v0,0(sp)
  403ac8:	8fa30000 	lw	v1,0(sp)
  403acc:	8fa20004 	lw	v0,4(sp)
  403ad0:	8fa40008 	lw	a0,8(sp)
  403ad4:	00621821 	addu	v1,v1,v0
  403ad8:	00641823 	subu	v1,v1,a0
  403adc:	00651821 	addu	v1,v1,a1
  403ae0:	afa30004 	sw	v1,4(sp)
  403ae4:	8fa20000 	lw	v0,0(sp)
  403ae8:	8fa30004 	lw	v1,4(sp)
  403aec:	8fa40008 	lw	a0,8(sp)
  403af0:	00431021 	addu	v0,v0,v1
  403af4:	00441023 	subu	v0,v0,a0
  403af8:	00451021 	addu	v0,v0,a1
  403afc:	afa20008 	sw	v0,8(sp)
  403b00:	8fa30000 	lw	v1,0(sp)
  403b04:	8fa20004 	lw	v0,4(sp)
  403b08:	8fa40008 	lw	a0,8(sp)
  403b0c:	00621821 	addu	v1,v1,v0
  403b10:	00641823 	subu	v1,v1,a0
  403b14:	00651821 	addu	v1,v1,a1
  403b18:	24a50001 	addiu	a1,a1,1
  403b1c:	afa30000 	sw	v1,0(sp)
  403b20:	14a6ff8e 	bne	a1,a2,40395c <func_9+0x24>
  403b24:	00000000 	nop
  403b28:	00002821 	move	a1,zero
  403b2c:	24060002 	li	a2,2
  403b30:	8fa20000 	lw	v0,0(sp)
  403b34:	8fa30004 	lw	v1,4(sp)
  403b38:	8fa40008 	lw	a0,8(sp)
  403b3c:	00431021 	addu	v0,v0,v1
  403b40:	00441023 	subu	v0,v0,a0
  403b44:	00451021 	addu	v0,v0,a1
  403b48:	afa20004 	sw	v0,4(sp)
  403b4c:	8fa30000 	lw	v1,0(sp)
  403b50:	8fa20004 	lw	v0,4(sp)
  403b54:	8fa40008 	lw	a0,8(sp)
  403b58:	00621821 	addu	v1,v1,v0
  403b5c:	00641823 	subu	v1,v1,a0
  403b60:	00651821 	addu	v1,v1,a1
  403b64:	afa30000 	sw	v1,0(sp)
  403b68:	8fa20000 	lw	v0,0(sp)
  403b6c:	8fa30004 	lw	v1,4(sp)
  403b70:	8fa40008 	lw	a0,8(sp)
  403b74:	00431021 	addu	v0,v0,v1
  403b78:	00441023 	subu	v0,v0,a0
  403b7c:	00451021 	addu	v0,v0,a1
  403b80:	afa20008 	sw	v0,8(sp)
  403b84:	8fa30000 	lw	v1,0(sp)
  403b88:	8fa20004 	lw	v0,4(sp)
  403b8c:	8fa40008 	lw	a0,8(sp)
  403b90:	00621821 	addu	v1,v1,v0
  403b94:	00641823 	subu	v1,v1,a0
  403b98:	00651821 	addu	v1,v1,a1
  403b9c:	afa30004 	sw	v1,4(sp)
  403ba0:	8fa20000 	lw	v0,0(sp)
  403ba4:	8fa30004 	lw	v1,4(sp)
  403ba8:	8fa40008 	lw	a0,8(sp)
  403bac:	00431021 	addu	v0,v0,v1
  403bb0:	00441023 	subu	v0,v0,a0
  403bb4:	00451021 	addu	v0,v0,a1
  403bb8:	afa20004 	sw	v0,4(sp)
  403bbc:	8fa30000 	lw	v1,0(sp)
  403bc0:	8fa20004 	lw	v0,4(sp)
  403bc4:	8fa40008 	lw	a0,8(sp)
  403bc8:	00621821 	addu	v1,v1,v0
  403bcc:	00641823 	subu	v1,v1,a0
  403bd0:	00651821 	addu	v1,v1,a1
  403bd4:	afa30000 	sw	v1,0(sp)
  403bd8:	8fa20000 	lw	v0,0(sp)
  403bdc:	8fa30004 	lw	v1,4(sp)
  403be0:	8fa40008 	lw	a0,8(sp)
  403be4:	00431021 	addu	v0,v0,v1
  403be8:	00441023 	subu	v0,v0,a0
  403bec:	00451021 	addu	v0,v0,a1
  403bf0:	afa20008 	sw	v0,8(sp)
  403bf4:	8fa30000 	lw	v1,0(sp)
  403bf8:	8fa20004 	lw	v0,4(sp)
  403bfc:	8fa40008 	lw	a0,8(sp)
  403c00:	00621821 	addu	v1,v1,v0
  403c04:	00641823 	subu	v1,v1,a0
  403c08:	00651821 	addu	v1,v1,a1
  403c0c:	afa30004 	sw	v1,4(sp)
  403c10:	8fa20000 	lw	v0,0(sp)
  403c14:	8fa30004 	lw	v1,4(sp)
  403c18:	8fa40008 	lw	a0,8(sp)
  403c1c:	00431021 	addu	v0,v0,v1
  403c20:	00441023 	subu	v0,v0,a0
  403c24:	00451021 	addu	v0,v0,a1
  403c28:	afa20000 	sw	v0,0(sp)
  403c2c:	8fa30000 	lw	v1,0(sp)
  403c30:	8fa20004 	lw	v0,4(sp)
  403c34:	8fa40008 	lw	a0,8(sp)
  403c38:	00621821 	addu	v1,v1,v0
  403c3c:	00641823 	subu	v1,v1,a0
  403c40:	00651821 	addu	v1,v1,a1
  403c44:	afa30008 	sw	v1,8(sp)
  403c48:	8fa20000 	lw	v0,0(sp)
  403c4c:	8fa30004 	lw	v1,4(sp)
  403c50:	8fa40008 	lw	a0,8(sp)
  403c54:	00431021 	addu	v0,v0,v1
  403c58:	00441023 	subu	v0,v0,a0
  403c5c:	00451021 	addu	v0,v0,a1
  403c60:	afa20004 	sw	v0,4(sp)
  403c64:	8fa30000 	lw	v1,0(sp)
  403c68:	8fa20004 	lw	v0,4(sp)
  403c6c:	8fa40008 	lw	a0,8(sp)
  403c70:	00621821 	addu	v1,v1,v0
  403c74:	00641823 	subu	v1,v1,a0
  403c78:	00651821 	addu	v1,v1,a1
  403c7c:	afa30000 	sw	v1,0(sp)
  403c80:	8fa20000 	lw	v0,0(sp)
  403c84:	8fa30004 	lw	v1,4(sp)
  403c88:	8fa40008 	lw	a0,8(sp)
  403c8c:	00431021 	addu	v0,v0,v1
  403c90:	00441023 	subu	v0,v0,a0
  403c94:	00451021 	addu	v0,v0,a1
  403c98:	24a50001 	addiu	a1,a1,1
  403c9c:	afa20008 	sw	v0,8(sp)
  403ca0:	14a6ffa3 	bne	a1,a2,403b30 <func_9+0x1f8>
  403ca4:	00000000 	nop
  403ca8:	00002821 	move	a1,zero
  403cac:	24060002 	li	a2,2
  403cb0:	8fa20000 	lw	v0,0(sp)
  403cb4:	8fa30004 	lw	v1,4(sp)
  403cb8:	8fa40008 	lw	a0,8(sp)
  403cbc:	00431021 	addu	v0,v0,v1
  403cc0:	00441023 	subu	v0,v0,a0
  403cc4:	00451021 	addu	v0,v0,a1
  403cc8:	afa20008 	sw	v0,8(sp)
  403ccc:	8fa30000 	lw	v1,0(sp)
  403cd0:	8fa20004 	lw	v0,4(sp)
  403cd4:	8fa40008 	lw	a0,8(sp)
  403cd8:	00621821 	addu	v1,v1,v0
  403cdc:	00641823 	subu	v1,v1,a0
  403ce0:	00651821 	addu	v1,v1,a1
  403ce4:	afa30004 	sw	v1,4(sp)
  403ce8:	8fa20000 	lw	v0,0(sp)
  403cec:	8fa30004 	lw	v1,4(sp)
  403cf0:	8fa40008 	lw	a0,8(sp)
  403cf4:	00431021 	addu	v0,v0,v1
  403cf8:	00441023 	subu	v0,v0,a0
  403cfc:	00451021 	addu	v0,v0,a1
  403d00:	afa20000 	sw	v0,0(sp)
  403d04:	8fa30000 	lw	v1,0(sp)
  403d08:	8fa20004 	lw	v0,4(sp)
  403d0c:	8fa40008 	lw	a0,8(sp)
  403d10:	00621821 	addu	v1,v1,v0
  403d14:	00641823 	subu	v1,v1,a0
  403d18:	00651821 	addu	v1,v1,a1
  403d1c:	afa30008 	sw	v1,8(sp)
  403d20:	8fa20000 	lw	v0,0(sp)
  403d24:	8fa30004 	lw	v1,4(sp)
  403d28:	8fa40008 	lw	a0,8(sp)
  403d2c:	00431021 	addu	v0,v0,v1
  403d30:	00441023 	subu	v0,v0,a0
  403d34:	00451021 	addu	v0,v0,a1
  403d38:	afa20004 	sw	v0,4(sp)
  403d3c:	8fa30000 	lw	v1,0(sp)
  403d40:	8fa20004 	lw	v0,4(sp)
  403d44:	8fa40008 	lw	a0,8(sp)
  403d48:	00621821 	addu	v1,v1,v0
  403d4c:	00641823 	subu	v1,v1,a0
  403d50:	00651821 	addu	v1,v1,a1
  403d54:	afa30000 	sw	v1,0(sp)
  403d58:	8fa20000 	lw	v0,0(sp)
  403d5c:	8fa30004 	lw	v1,4(sp)
  403d60:	8fa40008 	lw	a0,8(sp)
  403d64:	00431021 	addu	v0,v0,v1
  403d68:	00441023 	subu	v0,v0,a0
  403d6c:	00451021 	addu	v0,v0,a1
  403d70:	24a50001 	addiu	a1,a1,1
  403d74:	afa20008 	sw	v0,8(sp)
  403d78:	14a6ffcd 	bne	a1,a2,403cb0 <func_9+0x378>
  403d7c:	00000000 	nop
  403d80:	00002821 	move	a1,zero
  403d84:	24060002 	li	a2,2
  403d88:	8fa20000 	lw	v0,0(sp)
  403d8c:	8fa30004 	lw	v1,4(sp)
  403d90:	8fa40008 	lw	a0,8(sp)
  403d94:	00431021 	addu	v0,v0,v1
  403d98:	00441023 	subu	v0,v0,a0
  403d9c:	00451021 	addu	v0,v0,a1
  403da0:	afa20000 	sw	v0,0(sp)
  403da4:	8fa30000 	lw	v1,0(sp)
  403da8:	8fa20004 	lw	v0,4(sp)
  403dac:	8fa40008 	lw	a0,8(sp)
  403db0:	00621821 	addu	v1,v1,v0
  403db4:	00641823 	subu	v1,v1,a0
  403db8:	00651821 	addu	v1,v1,a1
  403dbc:	afa30008 	sw	v1,8(sp)
  403dc0:	8fa20000 	lw	v0,0(sp)
  403dc4:	8fa30004 	lw	v1,4(sp)
  403dc8:	8fa40008 	lw	a0,8(sp)
  403dcc:	00431021 	addu	v0,v0,v1
  403dd0:	00441023 	subu	v0,v0,a0
  403dd4:	00451021 	addu	v0,v0,a1
  403dd8:	afa20004 	sw	v0,4(sp)
  403ddc:	8fa30000 	lw	v1,0(sp)
  403de0:	8fa20004 	lw	v0,4(sp)
  403de4:	8fa40008 	lw	a0,8(sp)
  403de8:	00621821 	addu	v1,v1,v0
  403dec:	00641823 	subu	v1,v1,a0
  403df0:	00651821 	addu	v1,v1,a1
  403df4:	afa30000 	sw	v1,0(sp)
  403df8:	8fa20000 	lw	v0,0(sp)
  403dfc:	8fa30004 	lw	v1,4(sp)
  403e00:	8fa40008 	lw	a0,8(sp)
  403e04:	00431021 	addu	v0,v0,v1
  403e08:	00441023 	subu	v0,v0,a0
  403e0c:	00451021 	addu	v0,v0,a1
  403e10:	afa20008 	sw	v0,8(sp)
  403e14:	8fa30000 	lw	v1,0(sp)
  403e18:	8fa20004 	lw	v0,4(sp)
  403e1c:	8fa40008 	lw	a0,8(sp)
  403e20:	00621821 	addu	v1,v1,v0
  403e24:	00641823 	subu	v1,v1,a0
  403e28:	00651821 	addu	v1,v1,a1
  403e2c:	afa30004 	sw	v1,4(sp)
  403e30:	8fa20000 	lw	v0,0(sp)
  403e34:	8fa30004 	lw	v1,4(sp)
  403e38:	8fa40008 	lw	a0,8(sp)
  403e3c:	00431021 	addu	v0,v0,v1
  403e40:	00441023 	subu	v0,v0,a0
  403e44:	00451021 	addu	v0,v0,a1
  403e48:	afa20000 	sw	v0,0(sp)
  403e4c:	8fa30000 	lw	v1,0(sp)
  403e50:	8fa20004 	lw	v0,4(sp)
  403e54:	8fa40008 	lw	a0,8(sp)
  403e58:	00621821 	addu	v1,v1,v0
  403e5c:	00641823 	subu	v1,v1,a0
  403e60:	00651821 	addu	v1,v1,a1
  403e64:	afa30004 	sw	v1,4(sp)
  403e68:	8fa20000 	lw	v0,0(sp)
  403e6c:	8fa30004 	lw	v1,4(sp)
  403e70:	8fa40008 	lw	a0,8(sp)
  403e74:	00431021 	addu	v0,v0,v1
  403e78:	00441023 	subu	v0,v0,a0
  403e7c:	00451021 	addu	v0,v0,a1
  403e80:	afa20000 	sw	v0,0(sp)
  403e84:	8fa30000 	lw	v1,0(sp)
  403e88:	8fa20004 	lw	v0,4(sp)
  403e8c:	8fa40008 	lw	a0,8(sp)
  403e90:	00621821 	addu	v1,v1,v0
  403e94:	00641823 	subu	v1,v1,a0
  403e98:	00651821 	addu	v1,v1,a1
  403e9c:	afa30008 	sw	v1,8(sp)
  403ea0:	8fa20000 	lw	v0,0(sp)
  403ea4:	8fa30004 	lw	v1,4(sp)
  403ea8:	8fa40008 	lw	a0,8(sp)
  403eac:	00431021 	addu	v0,v0,v1
  403eb0:	00441023 	subu	v0,v0,a0
  403eb4:	00451021 	addu	v0,v0,a1
  403eb8:	afa20004 	sw	v0,4(sp)
  403ebc:	8fa30000 	lw	v1,0(sp)
  403ec0:	8fa20004 	lw	v0,4(sp)
  403ec4:	8fa40008 	lw	a0,8(sp)
  403ec8:	00621821 	addu	v1,v1,v0
  403ecc:	00641823 	subu	v1,v1,a0
  403ed0:	00651821 	addu	v1,v1,a1
  403ed4:	afa30000 	sw	v1,0(sp)
  403ed8:	8fa20000 	lw	v0,0(sp)
  403edc:	8fa30004 	lw	v1,4(sp)
  403ee0:	8fa40008 	lw	a0,8(sp)
  403ee4:	00431021 	addu	v0,v0,v1
  403ee8:	00441023 	subu	v0,v0,a0
  403eec:	00451021 	addu	v0,v0,a1
  403ef0:	afa20008 	sw	v0,8(sp)
  403ef4:	8fa30000 	lw	v1,0(sp)
  403ef8:	8fa20004 	lw	v0,4(sp)
  403efc:	8fa40008 	lw	a0,8(sp)
  403f00:	00621821 	addu	v1,v1,v0
  403f04:	00641823 	subu	v1,v1,a0
  403f08:	00651821 	addu	v1,v1,a1
  403f0c:	afa30004 	sw	v1,4(sp)
  403f10:	8fa20000 	lw	v0,0(sp)
  403f14:	8fa30004 	lw	v1,4(sp)
  403f18:	8fa40008 	lw	a0,8(sp)
  403f1c:	00431021 	addu	v0,v0,v1
  403f20:	00441023 	subu	v0,v0,a0
  403f24:	00451021 	addu	v0,v0,a1
  403f28:	afa20000 	sw	v0,0(sp)
  403f2c:	8fa30000 	lw	v1,0(sp)
  403f30:	8fa20004 	lw	v0,4(sp)
  403f34:	8fa40008 	lw	a0,8(sp)
  403f38:	00621821 	addu	v1,v1,v0
  403f3c:	00641823 	subu	v1,v1,a0
  403f40:	00651821 	addu	v1,v1,a1
  403f44:	24a50001 	addiu	a1,a1,1
  403f48:	afa30004 	sw	v1,4(sp)
  403f4c:	14a6ff8e 	bne	a1,a2,403d88 <func_9+0x450>
  403f50:	00000000 	nop
  403f54:	8fa20000 	lw	v0,0(sp)
  403f58:	8fa30004 	lw	v1,4(sp)
  403f5c:	8fa40008 	lw	a0,8(sp)
  403f60:	00431021 	addu	v0,v0,v1
  403f64:	00441021 	addu	v0,v0,a0
  403f68:	03e00008 	jr	ra
  403f6c:	27bd0010 	addiu	sp,sp,16

00403f70 <func_10>:
  403f70:	27bdfff0 	addiu	sp,sp,-16
  403f74:	2402000a 	li	v0,10
  403f78:	afa20000 	sw	v0,0(sp)
  403f7c:	2403000b 	li	v1,11
  403f80:	2402000c 	li	v0,12
  403f84:	afa30004 	sw	v1,4(sp)
  403f88:	00002821 	move	a1,zero
  403f8c:	afa20008 	sw	v0,8(sp)
  403f90:	24060002 	li	a2,2
  403f94:	8fa20000 	lw	v0,0(sp)
  403f98:	8fa30004 	lw	v1,4(sp)
  403f9c:	8fa40008 	lw	a0,8(sp)
  403fa0:	00431021 	addu	v0,v0,v1
  403fa4:	00441023 	subu	v0,v0,a0
  403fa8:	00451021 	addu	v0,v0,a1
  403fac:	afa20000 	sw	v0,0(sp)
  403fb0:	8fa30000 	lw	v1,0(sp)
  403fb4:	8fa20004 	lw	v0,4(sp)
  403fb8:	8fa40008 	lw	a0,8(sp)
  403fbc:	00621821 	addu	v1,v1,v0
  403fc0:	00641823 	subu	v1,v1,a0
  403fc4:	00651821 	addu	v1,v1,a1
  403fc8:	afa30004 	sw	v1,4(sp)
  403fcc:	8fa20000 	lw	v0,0(sp)
  403fd0:	8fa30004 	lw	v1,4(sp)
  403fd4:	8fa40008 	lw	a0,8(sp)
  403fd8:	00431021 	addu	v0,v0,v1
  403fdc:	00441023 	subu	v0,v0,a0
  403fe0:	00451021 	addu	v0,v0,a1
  403fe4:	afa20008 	sw	v0,8(sp)
  403fe8:	8fa30000 	lw	v1,0(sp)
  403fec:	8fa20004 	lw	v0,4(sp)
  403ff0:	8fa40008 	lw	a0,8(sp)
  403ff4:	00621821 	addu	v1,v1,v0
  403ff8:	00641823 	subu	v1,v1,a0
  403ffc:	00651821 	addu	v1,v1,a1
  404000:	afa30000 	sw	v1,0(sp)
  404004:	8fa20000 	lw	v0,0(sp)
  404008:	8fa30004 	lw	v1,4(sp)
  40400c:	8fa40008 	lw	a0,8(sp)
  404010:	00431021 	addu	v0,v0,v1
  404014:	00441023 	subu	v0,v0,a0
  404018:	00451021 	addu	v0,v0,a1
  40401c:	afa20004 	sw	v0,4(sp)
  404020:	8fa30000 	lw	v1,0(sp)
  404024:	8fa20004 	lw	v0,4(sp)
  404028:	8fa40008 	lw	a0,8(sp)
  40402c:	00621821 	addu	v1,v1,v0
  404030:	00641823 	subu	v1,v1,a0
  404034:	00651821 	addu	v1,v1,a1
  404038:	afa30008 	sw	v1,8(sp)
  40403c:	8fa20000 	lw	v0,0(sp)
  404040:	8fa30004 	lw	v1,4(sp)
  404044:	8fa40008 	lw	a0,8(sp)
  404048:	00431021 	addu	v0,v0,v1
  40404c:	00441023 	subu	v0,v0,a0
  404050:	00451021 	addu	v0,v0,a1
  404054:	afa20000 	sw	v0,0(sp)
  404058:	8fa30000 	lw	v1,0(sp)
  40405c:	8fa20004 	lw	v0,4(sp)
  404060:	8fa40008 	lw	a0,8(sp)
  404064:	00621821 	addu	v1,v1,v0
  404068:	00641823 	subu	v1,v1,a0
  40406c:	00651821 	addu	v1,v1,a1
  404070:	afa30004 	sw	v1,4(sp)
  404074:	8fa20000 	lw	v0,0(sp)
  404078:	8fa30004 	lw	v1,4(sp)
  40407c:	8fa40008 	lw	a0,8(sp)
  404080:	00431021 	addu	v0,v0,v1
  404084:	00441023 	subu	v0,v0,a0
  404088:	00451021 	addu	v0,v0,a1
  40408c:	afa20008 	sw	v0,8(sp)
  404090:	8fa30000 	lw	v1,0(sp)
  404094:	8fa20004 	lw	v0,4(sp)
  404098:	8fa40008 	lw	a0,8(sp)
  40409c:	00621821 	addu	v1,v1,v0
  4040a0:	00641823 	subu	v1,v1,a0
  4040a4:	00651821 	addu	v1,v1,a1
  4040a8:	afa30000 	sw	v1,0(sp)
  4040ac:	8fa20000 	lw	v0,0(sp)
  4040b0:	8fa30004 	lw	v1,4(sp)
  4040b4:	8fa40008 	lw	a0,8(sp)
  4040b8:	00431021 	addu	v0,v0,v1
  4040bc:	00441023 	subu	v0,v0,a0
  4040c0:	00451021 	addu	v0,v0,a1
  4040c4:	afa20004 	sw	v0,4(sp)
  4040c8:	8fa30000 	lw	v1,0(sp)
  4040cc:	8fa20004 	lw	v0,4(sp)
  4040d0:	8fa40008 	lw	a0,8(sp)
  4040d4:	00621821 	addu	v1,v1,v0
  4040d8:	00641823 	subu	v1,v1,a0
  4040dc:	00651821 	addu	v1,v1,a1
  4040e0:	afa30008 	sw	v1,8(sp)
  4040e4:	8fa20000 	lw	v0,0(sp)
  4040e8:	8fa30004 	lw	v1,4(sp)
  4040ec:	8fa40008 	lw	a0,8(sp)
  4040f0:	00431021 	addu	v0,v0,v1
  4040f4:	00441023 	subu	v0,v0,a0
  4040f8:	00451021 	addu	v0,v0,a1
  4040fc:	afa20000 	sw	v0,0(sp)
  404100:	8fa30000 	lw	v1,0(sp)
  404104:	8fa20004 	lw	v0,4(sp)
  404108:	8fa40008 	lw	a0,8(sp)
  40410c:	00621821 	addu	v1,v1,v0
  404110:	00641823 	subu	v1,v1,a0
  404114:	00651821 	addu	v1,v1,a1
  404118:	afa30004 	sw	v1,4(sp)
  40411c:	8fa20000 	lw	v0,0(sp)
  404120:	8fa30004 	lw	v1,4(sp)
  404124:	8fa40008 	lw	a0,8(sp)
  404128:	00431021 	addu	v0,v0,v1
  40412c:	00441023 	subu	v0,v0,a0
  404130:	00451021 	addu	v0,v0,a1
  404134:	afa20008 	sw	v0,8(sp)
  404138:	8fa30000 	lw	v1,0(sp)
  40413c:	8fa20004 	lw	v0,4(sp)
  404140:	8fa40008 	lw	a0,8(sp)
  404144:	00621821 	addu	v1,v1,v0
  404148:	00641823 	subu	v1,v1,a0
  40414c:	00651821 	addu	v1,v1,a1
  404150:	24a50001 	addiu	a1,a1,1
  404154:	afa30000 	sw	v1,0(sp)
  404158:	14a6ff8e 	bne	a1,a2,403f94 <func_10+0x24>
  40415c:	00000000 	nop
  404160:	00002821 	move	a1,zero
  404164:	24060002 	li	a2,2
  404168:	8fa20000 	lw	v0,0(sp)
  40416c:	8fa30004 	lw	v1,4(sp)
  404170:	8fa40008 	lw	a0,8(sp)
  404174:	00431021 	addu	v0,v0,v1
  404178:	00441023 	subu	v0,v0,a0
  40417c:	00451021 	addu	v0,v0,a1
  404180:	afa20004 	sw	v0,4(sp)
  404184:	8fa30000 	lw	v1,0(sp)
  404188:	8fa20004 	lw	v0,4(sp)
  40418c:	8fa40008 	lw	a0,8(sp)
  404190:	00621821 	addu	v1,v1,v0
  404194:	00641823 	subu	v1,v1,a0
  404198:	00651821 	addu	v1,v1,a1
  40419c:	afa30000 	sw	v1,0(sp)
  4041a0:	8fa20000 	lw	v0,0(sp)
  4041a4:	8fa30004 	lw	v1,4(sp)
  4041a8:	8fa40008 	lw	a0,8(sp)
  4041ac:	00431021 	addu	v0,v0,v1
  4041b0:	00441023 	subu	v0,v0,a0
  4041b4:	00451021 	addu	v0,v0,a1
  4041b8:	afa20008 	sw	v0,8(sp)
  4041bc:	8fa30000 	lw	v1,0(sp)
  4041c0:	8fa20004 	lw	v0,4(sp)
  4041c4:	8fa40008 	lw	a0,8(sp)
  4041c8:	00621821 	addu	v1,v1,v0
  4041cc:	00641823 	subu	v1,v1,a0
  4041d0:	00651821 	addu	v1,v1,a1
  4041d4:	afa30004 	sw	v1,4(sp)
  4041d8:	8fa20000 	lw	v0,0(sp)
  4041dc:	8fa30004 	lw	v1,4(sp)
  4041e0:	8fa40008 	lw	a0,8(sp)
  4041e4:	00431021 	addu	v0,v0,v1
  4041e8:	00441023 	subu	v0,v0,a0
  4041ec:	00451021 	addu	v0,v0,a1
  4041f0:	afa20004 	sw	v0,4(sp)
  4041f4:	8fa30000 	lw	v1,0(sp)
  4041f8:	8fa20004 	lw	v0,4(sp)
  4041fc:	8fa40008 	lw	a0,8(sp)
  404200:	00621821 	addu	v1,v1,v0
  404204:	00641823 	subu	v1,v1,a0
  404208:	00651821 	addu	v1,v1,a1
  40420c:	afa30000 	sw	v1,0(sp)
  404210:	8fa20000 	lw	v0,0(sp)
  404214:	8fa30004 	lw	v1,4(sp)
  404218:	8fa40008 	lw	a0,8(sp)
  40421c:	00431021 	addu	v0,v0,v1
  404220:	00441023 	subu	v0,v0,a0
  404224:	00451021 	addu	v0,v0,a1
  404228:	afa20008 	sw	v0,8(sp)
  40422c:	8fa30000 	lw	v1,0(sp)
  404230:	8fa20004 	lw	v0,4(sp)
  404234:	8fa40008 	lw	a0,8(sp)
  404238:	00621821 	addu	v1,v1,v0
  40423c:	00641823 	subu	v1,v1,a0
  404240:	00651821 	addu	v1,v1,a1
  404244:	afa30004 	sw	v1,4(sp)
  404248:	8fa20000 	lw	v0,0(sp)
  40424c:	8fa30004 	lw	v1,4(sp)
  404250:	8fa40008 	lw	a0,8(sp)
  404254:	00431021 	addu	v0,v0,v1
  404258:	00441023 	subu	v0,v0,a0
  40425c:	00451021 	addu	v0,v0,a1
  404260:	afa20000 	sw	v0,0(sp)
  404264:	8fa30000 	lw	v1,0(sp)
  404268:	8fa20004 	lw	v0,4(sp)
  40426c:	8fa40008 	lw	a0,8(sp)
  404270:	00621821 	addu	v1,v1,v0
  404274:	00641823 	subu	v1,v1,a0
  404278:	00651821 	addu	v1,v1,a1
  40427c:	afa30008 	sw	v1,8(sp)
  404280:	8fa20000 	lw	v0,0(sp)
  404284:	8fa30004 	lw	v1,4(sp)
  404288:	8fa40008 	lw	a0,8(sp)
  40428c:	00431021 	addu	v0,v0,v1
  404290:	00441023 	subu	v0,v0,a0
  404294:	00451021 	addu	v0,v0,a1
  404298:	afa20004 	sw	v0,4(sp)
  40429c:	8fa30000 	lw	v1,0(sp)
  4042a0:	8fa20004 	lw	v0,4(sp)
  4042a4:	8fa40008 	lw	a0,8(sp)
  4042a8:	00621821 	addu	v1,v1,v0
  4042ac:	00641823 	subu	v1,v1,a0
  4042b0:	00651821 	addu	v1,v1,a1
  4042b4:	afa30000 	sw	v1,0(sp)
  4042b8:	8fa20000 	lw	v0,0(sp)
  4042bc:	8fa30004 	lw	v1,4(sp)
  4042c0:	8fa40008 	lw	a0,8(sp)
  4042c4:	00431021 	addu	v0,v0,v1
  4042c8:	00441023 	subu	v0,v0,a0
  4042cc:	00451021 	addu	v0,v0,a1
  4042d0:	24a50001 	addiu	a1,a1,1
  4042d4:	afa20008 	sw	v0,8(sp)
  4042d8:	14a6ffa3 	bne	a1,a2,404168 <func_10+0x1f8>
  4042dc:	00000000 	nop
  4042e0:	00002821 	move	a1,zero
  4042e4:	24060002 	li	a2,2
  4042e8:	8fa20000 	lw	v0,0(sp)
  4042ec:	8fa30004 	lw	v1,4(sp)
  4042f0:	8fa40008 	lw	a0,8(sp)
  4042f4:	00431021 	addu	v0,v0,v1
  4042f8:	00441023 	subu	v0,v0,a0
  4042fc:	00451021 	addu	v0,v0,a1
  404300:	afa20008 	sw	v0,8(sp)
  404304:	8fa30000 	lw	v1,0(sp)
  404308:	8fa20004 	lw	v0,4(sp)
  40430c:	8fa40008 	lw	a0,8(sp)
  404310:	00621821 	addu	v1,v1,v0
  404314:	00641823 	subu	v1,v1,a0
  404318:	00651821 	addu	v1,v1,a1
  40431c:	afa30004 	sw	v1,4(sp)
  404320:	8fa20000 	lw	v0,0(sp)
  404324:	8fa30004 	lw	v1,4(sp)
  404328:	8fa40008 	lw	a0,8(sp)
  40432c:	00431021 	addu	v0,v0,v1
  404330:	00441023 	subu	v0,v0,a0
  404334:	00451021 	addu	v0,v0,a1
  404338:	afa20000 	sw	v0,0(sp)
  40433c:	8fa30000 	lw	v1,0(sp)
  404340:	8fa20004 	lw	v0,4(sp)
  404344:	8fa40008 	lw	a0,8(sp)
  404348:	00621821 	addu	v1,v1,v0
  40434c:	00641823 	subu	v1,v1,a0
  404350:	00651821 	addu	v1,v1,a1
  404354:	afa30008 	sw	v1,8(sp)
  404358:	8fa20000 	lw	v0,0(sp)
  40435c:	8fa30004 	lw	v1,4(sp)
  404360:	8fa40008 	lw	a0,8(sp)
  404364:	00431021 	addu	v0,v0,v1
  404368:	00441023 	subu	v0,v0,a0
  40436c:	00451021 	addu	v0,v0,a1
  404370:	afa20004 	sw	v0,4(sp)
  404374:	8fa30000 	lw	v1,0(sp)
  404378:	8fa20004 	lw	v0,4(sp)
  40437c:	8fa40008 	lw	a0,8(sp)
  404380:	00621821 	addu	v1,v1,v0
  404384:	00641823 	subu	v1,v1,a0
  404388:	00651821 	addu	v1,v1,a1
  40438c:	afa30000 	sw	v1,0(sp)
  404390:	8fa20000 	lw	v0,0(sp)
  404394:	8fa30004 	lw	v1,4(sp)
  404398:	8fa40008 	lw	a0,8(sp)
  40439c:	00431021 	addu	v0,v0,v1
  4043a0:	00441023 	subu	v0,v0,a0
  4043a4:	00451021 	addu	v0,v0,a1
  4043a8:	24a50001 	addiu	a1,a1,1
  4043ac:	afa20008 	sw	v0,8(sp)
  4043b0:	14a6ffcd 	bne	a1,a2,4042e8 <func_10+0x378>
  4043b4:	00000000 	nop
  4043b8:	00002821 	move	a1,zero
  4043bc:	24060002 	li	a2,2
  4043c0:	8fa20000 	lw	v0,0(sp)
  4043c4:	8fa30004 	lw	v1,4(sp)
  4043c8:	8fa40008 	lw	a0,8(sp)
  4043cc:	00431021 	addu	v0,v0,v1
  4043d0:	00441023 	subu	v0,v0,a0
  4043d4:	00451021 	addu	v0,v0,a1
  4043d8:	afa20000 	sw	v0,0(sp)
  4043dc:	8fa30000 	lw	v1,0(sp)
  4043e0:	8fa20004 	lw	v0,4(sp)
  4043e4:	8fa40008 	lw	a0,8(sp)
  4043e8:	00621821 	addu	v1,v1,v0
  4043ec:	00641823 	subu	v1,v1,a0
  4043f0:	00651821 	addu	v1,v1,a1
  4043f4:	afa30008 	sw	v1,8(sp)
  4043f8:	8fa20000 	lw	v0,0(sp)
  4043fc:	8fa30004 	lw	v1,4(sp)
  404400:	8fa40008 	lw	a0,8(sp)
  404404:	00431021 	addu	v0,v0,v1
  404408:	00441023 	subu	v0,v0,a0
  40440c:	00451021 	addu	v0,v0,a1
  404410:	afa20004 	sw	v0,4(sp)
  404414:	8fa30000 	lw	v1,0(sp)
  404418:	8fa20004 	lw	v0,4(sp)
  40441c:	8fa40008 	lw	a0,8(sp)
  404420:	00621821 	addu	v1,v1,v0
  404424:	00641823 	subu	v1,v1,a0
  404428:	00651821 	addu	v1,v1,a1
  40442c:	afa30000 	sw	v1,0(sp)
  404430:	8fa20000 	lw	v0,0(sp)
  404434:	8fa30004 	lw	v1,4(sp)
  404438:	8fa40008 	lw	a0,8(sp)
  40443c:	00431021 	addu	v0,v0,v1
  404440:	00441023 	subu	v0,v0,a0
  404444:	00451021 	addu	v0,v0,a1
  404448:	afa20008 	sw	v0,8(sp)
  40444c:	8fa30000 	lw	v1,0(sp)
  404450:	8fa20004 	lw	v0,4(sp)
  404454:	8fa40008 	lw	a0,8(sp)
  404458:	00621821 	addu	v1,v1,v0
  40445c:	00641823 	subu	v1,v1,a0
  404460:	00651821 	addu	v1,v1,a1
  404464:	afa30004 	sw	v1,4(sp)
  404468:	8fa20000 	lw	v0,0(sp)
  40446c:	8fa30004 	lw	v1,4(sp)
  404470:	8fa40008 	lw	a0,8(sp)
  404474:	00431021 	addu	v0,v0,v1
  404478:	00441023 	subu	v0,v0,a0
  40447c:	00451021 	addu	v0,v0,a1
  404480:	afa20000 	sw	v0,0(sp)
  404484:	8fa30000 	lw	v1,0(sp)
  404488:	8fa20004 	lw	v0,4(sp)
  40448c:	8fa40008 	lw	a0,8(sp)
  404490:	00621821 	addu	v1,v1,v0
  404494:	00641823 	subu	v1,v1,a0
  404498:	00651821 	addu	v1,v1,a1
  40449c:	afa30004 	sw	v1,4(sp)
  4044a0:	8fa20000 	lw	v0,0(sp)
  4044a4:	8fa30004 	lw	v1,4(sp)
  4044a8:	8fa40008 	lw	a0,8(sp)
  4044ac:	00431021 	addu	v0,v0,v1
  4044b0:	00441023 	subu	v0,v0,a0
  4044b4:	00451021 	addu	v0,v0,a1
  4044b8:	afa20000 	sw	v0,0(sp)
  4044bc:	8fa30000 	lw	v1,0(sp)
  4044c0:	8fa20004 	lw	v0,4(sp)
  4044c4:	8fa40008 	lw	a0,8(sp)
  4044c8:	00621821 	addu	v1,v1,v0
  4044cc:	00641823 	subu	v1,v1,a0
  4044d0:	00651821 	addu	v1,v1,a1
  4044d4:	afa30008 	sw	v1,8(sp)
  4044d8:	8fa20000 	lw	v0,0(sp)
  4044dc:	8fa30004 	lw	v1,4(sp)
  4044e0:	8fa40008 	lw	a0,8(sp)
  4044e4:	00431021 	addu	v0,v0,v1
  4044e8:	00441023 	subu	v0,v0,a0
  4044ec:	00451021 	addu	v0,v0,a1
  4044f0:	afa20004 	sw	v0,4(sp)
  4044f4:	8fa30000 	lw	v1,0(sp)
  4044f8:	8fa20004 	lw	v0,4(sp)
  4044fc:	8fa40008 	lw	a0,8(sp)
  404500:	00621821 	addu	v1,v1,v0
  404504:	00641823 	subu	v1,v1,a0
  404508:	00651821 	addu	v1,v1,a1
  40450c:	afa30000 	sw	v1,0(sp)
  404510:	8fa20000 	lw	v0,0(sp)
  404514:	8fa30004 	lw	v1,4(sp)
  404518:	8fa40008 	lw	a0,8(sp)
  40451c:	00431021 	addu	v0,v0,v1
  404520:	00441023 	subu	v0,v0,a0
  404524:	00451021 	addu	v0,v0,a1
  404528:	afa20008 	sw	v0,8(sp)
  40452c:	8fa30000 	lw	v1,0(sp)
  404530:	8fa20004 	lw	v0,4(sp)
  404534:	8fa40008 	lw	a0,8(sp)
  404538:	00621821 	addu	v1,v1,v0
  40453c:	00641823 	subu	v1,v1,a0
  404540:	00651821 	addu	v1,v1,a1
  404544:	afa30004 	sw	v1,4(sp)
  404548:	8fa20000 	lw	v0,0(sp)
  40454c:	8fa30004 	lw	v1,4(sp)
  404550:	8fa40008 	lw	a0,8(sp)
  404554:	00431021 	addu	v0,v0,v1
  404558:	00441023 	subu	v0,v0,a0
  40455c:	00451021 	addu	v0,v0,a1
  404560:	afa20000 	sw	v0,0(sp)
  404564:	8fa30000 	lw	v1,0(sp)
  404568:	8fa20004 	lw	v0,4(sp)
  40456c:	8fa40008 	lw	a0,8(sp)
  404570:	00621821 	addu	v1,v1,v0
  404574:	00641823 	subu	v1,v1,a0
  404578:	00651821 	addu	v1,v1,a1
  40457c:	24a50001 	addiu	a1,a1,1
  404580:	afa30004 	sw	v1,4(sp)
  404584:	14a6ff8e 	bne	a1,a2,4043c0 <func_10+0x450>
  404588:	00000000 	nop
  40458c:	8fa20000 	lw	v0,0(sp)
  404590:	8fa30004 	lw	v1,4(sp)
  404594:	8fa40008 	lw	a0,8(sp)
  404598:	00431021 	addu	v0,v0,v1
  40459c:	00441021 	addu	v0,v0,a0
  4045a0:	03e00008 	jr	ra
  4045a4:	27bd0010 	addiu	sp,sp,16

004045a8 <func_11>:
  4045a8:	27bdfff0 	addiu	sp,sp,-16
  4045ac:	2402000a 	li	v0,10
  4045b0:	afa20000 	sw	v0,0(sp)
  4045b4:	2403000b 	li	v1,11
  4045b8:	2402000c 	li	v0,12
  4045bc:	afa30004 	sw	v1,4(sp)
  4045c0:	00002821 	move	a1,zero
  4045c4:	afa20008 	sw	v0,8(sp)
  4045c8:	24060002 	li	a2,2
  4045cc:	8fa20000 	lw	v0,0(sp)
  4045d0:	8fa30004 	lw	v1,4(sp)
  4045d4:	8fa40008 	lw	a0,8(sp)
  4045d8:	00431021 	addu	v0,v0,v1
  4045dc:	00441023 	subu	v0,v0,a0
  4045e0:	00451021 	addu	v0,v0,a1
  4045e4:	afa20000 	sw	v0,0(sp)
  4045e8:	8fa30000 	lw	v1,0(sp)
  4045ec:	8fa20004 	lw	v0,4(sp)
  4045f0:	8fa40008 	lw	a0,8(sp)
  4045f4:	00621821 	addu	v1,v1,v0
  4045f8:	00641823 	subu	v1,v1,a0
  4045fc:	00651821 	addu	v1,v1,a1
  404600:	afa30004 	sw	v1,4(sp)
  404604:	8fa20000 	lw	v0,0(sp)
  404608:	8fa30004 	lw	v1,4(sp)
  40460c:	8fa40008 	lw	a0,8(sp)
  404610:	00431021 	addu	v0,v0,v1
  404614:	00441023 	subu	v0,v0,a0
  404618:	00451021 	addu	v0,v0,a1
  40461c:	afa20008 	sw	v0,8(sp)
  404620:	8fa30000 	lw	v1,0(sp)
  404624:	8fa20004 	lw	v0,4(sp)
  404628:	8fa40008 	lw	a0,8(sp)
  40462c:	00621821 	addu	v1,v1,v0
  404630:	00641823 	subu	v1,v1,a0
  404634:	00651821 	addu	v1,v1,a1
  404638:	afa30000 	sw	v1,0(sp)
  40463c:	8fa20000 	lw	v0,0(sp)
  404640:	8fa30004 	lw	v1,4(sp)
  404644:	8fa40008 	lw	a0,8(sp)
  404648:	00431021 	addu	v0,v0,v1
  40464c:	00441023 	subu	v0,v0,a0
  404650:	00451021 	addu	v0,v0,a1
  404654:	afa20004 	sw	v0,4(sp)
  404658:	8fa30000 	lw	v1,0(sp)
  40465c:	8fa20004 	lw	v0,4(sp)
  404660:	8fa40008 	lw	a0,8(sp)
  404664:	00621821 	addu	v1,v1,v0
  404668:	00641823 	subu	v1,v1,a0
  40466c:	00651821 	addu	v1,v1,a1
  404670:	afa30008 	sw	v1,8(sp)
  404674:	8fa20000 	lw	v0,0(sp)
  404678:	8fa30004 	lw	v1,4(sp)
  40467c:	8fa40008 	lw	a0,8(sp)
  404680:	00431021 	addu	v0,v0,v1
  404684:	00441023 	subu	v0,v0,a0
  404688:	00451021 	addu	v0,v0,a1
  40468c:	afa20000 	sw	v0,0(sp)
  404690:	8fa30000 	lw	v1,0(sp)
  404694:	8fa20004 	lw	v0,4(sp)
  404698:	8fa40008 	lw	a0,8(sp)
  40469c:	00621821 	addu	v1,v1,v0
  4046a0:	00641823 	subu	v1,v1,a0
  4046a4:	00651821 	addu	v1,v1,a1
  4046a8:	afa30004 	sw	v1,4(sp)
  4046ac:	8fa20000 	lw	v0,0(sp)
  4046b0:	8fa30004 	lw	v1,4(sp)
  4046b4:	8fa40008 	lw	a0,8(sp)
  4046b8:	00431021 	addu	v0,v0,v1
  4046bc:	00441023 	subu	v0,v0,a0
  4046c0:	00451021 	addu	v0,v0,a1
  4046c4:	afa20008 	sw	v0,8(sp)
  4046c8:	8fa30000 	lw	v1,0(sp)
  4046cc:	8fa20004 	lw	v0,4(sp)
  4046d0:	8fa40008 	lw	a0,8(sp)
  4046d4:	00621821 	addu	v1,v1,v0
  4046d8:	00641823 	subu	v1,v1,a0
  4046dc:	00651821 	addu	v1,v1,a1
  4046e0:	afa30000 	sw	v1,0(sp)
  4046e4:	8fa20000 	lw	v0,0(sp)
  4046e8:	8fa30004 	lw	v1,4(sp)
  4046ec:	8fa40008 	lw	a0,8(sp)
  4046f0:	00431021 	addu	v0,v0,v1
  4046f4:	00441023 	subu	v0,v0,a0
  4046f8:	00451021 	addu	v0,v0,a1
  4046fc:	afa20004 	sw	v0,4(sp)
  404700:	8fa30000 	lw	v1,0(sp)
  404704:	8fa20004 	lw	v0,4(sp)
  404708:	8fa40008 	lw	a0,8(sp)
  40470c:	00621821 	addu	v1,v1,v0
  404710:	00641823 	subu	v1,v1,a0
  404714:	00651821 	addu	v1,v1,a1
  404718:	afa30008 	sw	v1,8(sp)
  40471c:	8fa20000 	lw	v0,0(sp)
  404720:	8fa30004 	lw	v1,4(sp)
  404724:	8fa40008 	lw	a0,8(sp)
  404728:	00431021 	addu	v0,v0,v1
  40472c:	00441023 	subu	v0,v0,a0
  404730:	00451021 	addu	v0,v0,a1
  404734:	afa20000 	sw	v0,0(sp)
  404738:	8fa30000 	lw	v1,0(sp)
  40473c:	8fa20004 	lw	v0,4(sp)
  404740:	8fa40008 	lw	a0,8(sp)
  404744:	00621821 	addu	v1,v1,v0
  404748:	00641823 	subu	v1,v1,a0
  40474c:	00651821 	addu	v1,v1,a1
  404750:	afa30004 	sw	v1,4(sp)
  404754:	8fa20000 	lw	v0,0(sp)
  404758:	8fa30004 	lw	v1,4(sp)
  40475c:	8fa40008 	lw	a0,8(sp)
  404760:	00431021 	addu	v0,v0,v1
  404764:	00441023 	subu	v0,v0,a0
  404768:	00451021 	addu	v0,v0,a1
  40476c:	afa20008 	sw	v0,8(sp)
  404770:	8fa30000 	lw	v1,0(sp)
  404774:	8fa20004 	lw	v0,4(sp)
  404778:	8fa40008 	lw	a0,8(sp)
  40477c:	00621821 	addu	v1,v1,v0
  404780:	00641823 	subu	v1,v1,a0
  404784:	00651821 	addu	v1,v1,a1
  404788:	24a50001 	addiu	a1,a1,1
  40478c:	afa30000 	sw	v1,0(sp)
  404790:	14a6ff8e 	bne	a1,a2,4045cc <func_11+0x24>
  404794:	00000000 	nop
  404798:	00002821 	move	a1,zero
  40479c:	24060002 	li	a2,2
  4047a0:	8fa20000 	lw	v0,0(sp)
  4047a4:	8fa30004 	lw	v1,4(sp)
  4047a8:	8fa40008 	lw	a0,8(sp)
  4047ac:	00431021 	addu	v0,v0,v1
  4047b0:	00441023 	subu	v0,v0,a0
  4047b4:	00451021 	addu	v0,v0,a1
  4047b8:	afa20004 	sw	v0,4(sp)
  4047bc:	8fa30000 	lw	v1,0(sp)
  4047c0:	8fa20004 	lw	v0,4(sp)
  4047c4:	8fa40008 	lw	a0,8(sp)
  4047c8:	00621821 	addu	v1,v1,v0
  4047cc:	00641823 	subu	v1,v1,a0
  4047d0:	00651821 	addu	v1,v1,a1
  4047d4:	afa30000 	sw	v1,0(sp)
  4047d8:	8fa20000 	lw	v0,0(sp)
  4047dc:	8fa30004 	lw	v1,4(sp)
  4047e0:	8fa40008 	lw	a0,8(sp)
  4047e4:	00431021 	addu	v0,v0,v1
  4047e8:	00441023 	subu	v0,v0,a0
  4047ec:	00451021 	addu	v0,v0,a1
  4047f0:	afa20008 	sw	v0,8(sp)
  4047f4:	8fa30000 	lw	v1,0(sp)
  4047f8:	8fa20004 	lw	v0,4(sp)
  4047fc:	8fa40008 	lw	a0,8(sp)
  404800:	00621821 	addu	v1,v1,v0
  404804:	00641823 	subu	v1,v1,a0
  404808:	00651821 	addu	v1,v1,a1
  40480c:	afa30004 	sw	v1,4(sp)
  404810:	8fa20000 	lw	v0,0(sp)
  404814:	8fa30004 	lw	v1,4(sp)
  404818:	8fa40008 	lw	a0,8(sp)
  40481c:	00431021 	addu	v0,v0,v1
  404820:	00441023 	subu	v0,v0,a0
  404824:	00451021 	addu	v0,v0,a1
  404828:	afa20004 	sw	v0,4(sp)
  40482c:	8fa30000 	lw	v1,0(sp)
  404830:	8fa20004 	lw	v0,4(sp)
  404834:	8fa40008 	lw	a0,8(sp)
  404838:	00621821 	addu	v1,v1,v0
  40483c:	00641823 	subu	v1,v1,a0
  404840:	00651821 	addu	v1,v1,a1
  404844:	afa30000 	sw	v1,0(sp)
  404848:	8fa20000 	lw	v0,0(sp)
  40484c:	8fa30004 	lw	v1,4(sp)
  404850:	8fa40008 	lw	a0,8(sp)
  404854:	00431021 	addu	v0,v0,v1
  404858:	00441023 	subu	v0,v0,a0
  40485c:	00451021 	addu	v0,v0,a1
  404860:	afa20008 	sw	v0,8(sp)
  404864:	8fa30000 	lw	v1,0(sp)
  404868:	8fa20004 	lw	v0,4(sp)
  40486c:	8fa40008 	lw	a0,8(sp)
  404870:	00621821 	addu	v1,v1,v0
  404874:	00641823 	subu	v1,v1,a0
  404878:	00651821 	addu	v1,v1,a1
  40487c:	afa30004 	sw	v1,4(sp)
  404880:	8fa20000 	lw	v0,0(sp)
  404884:	8fa30004 	lw	v1,4(sp)
  404888:	8fa40008 	lw	a0,8(sp)
  40488c:	00431021 	addu	v0,v0,v1
  404890:	00441023 	subu	v0,v0,a0
  404894:	00451021 	addu	v0,v0,a1
  404898:	afa20000 	sw	v0,0(sp)
  40489c:	8fa30000 	lw	v1,0(sp)
  4048a0:	8fa20004 	lw	v0,4(sp)
  4048a4:	8fa40008 	lw	a0,8(sp)
  4048a8:	00621821 	addu	v1,v1,v0
  4048ac:	00641823 	subu	v1,v1,a0
  4048b0:	00651821 	addu	v1,v1,a1
  4048b4:	afa30008 	sw	v1,8(sp)
  4048b8:	8fa20000 	lw	v0,0(sp)
  4048bc:	8fa30004 	lw	v1,4(sp)
  4048c0:	8fa40008 	lw	a0,8(sp)
  4048c4:	00431021 	addu	v0,v0,v1
  4048c8:	00441023 	subu	v0,v0,a0
  4048cc:	00451021 	addu	v0,v0,a1
  4048d0:	afa20004 	sw	v0,4(sp)
  4048d4:	8fa30000 	lw	v1,0(sp)
  4048d8:	8fa20004 	lw	v0,4(sp)
  4048dc:	8fa40008 	lw	a0,8(sp)
  4048e0:	00621821 	addu	v1,v1,v0
  4048e4:	00641823 	subu	v1,v1,a0
  4048e8:	00651821 	addu	v1,v1,a1
  4048ec:	afa30000 	sw	v1,0(sp)
  4048f0:	8fa20000 	lw	v0,0(sp)
  4048f4:	8fa30004 	lw	v1,4(sp)
  4048f8:	8fa40008 	lw	a0,8(sp)
  4048fc:	00431021 	addu	v0,v0,v1
  404900:	00441023 	subu	v0,v0,a0
  404904:	00451021 	addu	v0,v0,a1
  404908:	24a50001 	addiu	a1,a1,1
  40490c:	afa20008 	sw	v0,8(sp)
  404910:	14a6ffa3 	bne	a1,a2,4047a0 <func_11+0x1f8>
  404914:	00000000 	nop
  404918:	00002821 	move	a1,zero
  40491c:	24060002 	li	a2,2
  404920:	8fa20000 	lw	v0,0(sp)
  404924:	8fa30004 	lw	v1,4(sp)
  404928:	8fa40008 	lw	a0,8(sp)
  40492c:	00431021 	addu	v0,v0,v1
  404930:	00441023 	subu	v0,v0,a0
  404934:	00451021 	addu	v0,v0,a1
  404938:	afa20008 	sw	v0,8(sp)
  40493c:	8fa30000 	lw	v1,0(sp)
  404940:	8fa20004 	lw	v0,4(sp)
  404944:	8fa40008 	lw	a0,8(sp)
  404948:	00621821 	addu	v1,v1,v0
  40494c:	00641823 	subu	v1,v1,a0
  404950:	00651821 	addu	v1,v1,a1
  404954:	afa30004 	sw	v1,4(sp)
  404958:	8fa20000 	lw	v0,0(sp)
  40495c:	8fa30004 	lw	v1,4(sp)
  404960:	8fa40008 	lw	a0,8(sp)
  404964:	00431021 	addu	v0,v0,v1
  404968:	00441023 	subu	v0,v0,a0
  40496c:	00451021 	addu	v0,v0,a1
  404970:	afa20000 	sw	v0,0(sp)
  404974:	8fa30000 	lw	v1,0(sp)
  404978:	8fa20004 	lw	v0,4(sp)
  40497c:	8fa40008 	lw	a0,8(sp)
  404980:	00621821 	addu	v1,v1,v0
  404984:	00641823 	subu	v1,v1,a0
  404988:	00651821 	addu	v1,v1,a1
  40498c:	afa30008 	sw	v1,8(sp)
  404990:	8fa20000 	lw	v0,0(sp)
  404994:	8fa30004 	lw	v1,4(sp)
  404998:	8fa40008 	lw	a0,8(sp)
  40499c:	00431021 	addu	v0,v0,v1
  4049a0:	00441023 	subu	v0,v0,a0
  4049a4:	00451021 	addu	v0,v0,a1
  4049a8:	afa20004 	sw	v0,4(sp)
  4049ac:	8fa30000 	lw	v1,0(sp)
  4049b0:	8fa20004 	lw	v0,4(sp)
  4049b4:	8fa40008 	lw	a0,8(sp)
  4049b8:	00621821 	addu	v1,v1,v0
  4049bc:	00641823 	subu	v1,v1,a0
  4049c0:	00651821 	addu	v1,v1,a1
  4049c4:	afa30000 	sw	v1,0(sp)
  4049c8:	8fa20000 	lw	v0,0(sp)
  4049cc:	8fa30004 	lw	v1,4(sp)
  4049d0:	8fa40008 	lw	a0,8(sp)
  4049d4:	00431021 	addu	v0,v0,v1
  4049d8:	00441023 	subu	v0,v0,a0
  4049dc:	00451021 	addu	v0,v0,a1
  4049e0:	24a50001 	addiu	a1,a1,1
  4049e4:	afa20008 	sw	v0,8(sp)
  4049e8:	14a6ffcd 	bne	a1,a2,404920 <func_11+0x378>
  4049ec:	00000000 	nop
  4049f0:	00002821 	move	a1,zero
  4049f4:	24060002 	li	a2,2
  4049f8:	8fa20000 	lw	v0,0(sp)
  4049fc:	8fa30004 	lw	v1,4(sp)
  404a00:	8fa40008 	lw	a0,8(sp)
  404a04:	00431021 	addu	v0,v0,v1
  404a08:	00441023 	subu	v0,v0,a0
  404a0c:	00451021 	addu	v0,v0,a1
  404a10:	afa20000 	sw	v0,0(sp)
  404a14:	8fa30000 	lw	v1,0(sp)
  404a18:	8fa20004 	lw	v0,4(sp)
  404a1c:	8fa40008 	lw	a0,8(sp)
  404a20:	00621821 	addu	v1,v1,v0
  404a24:	00641823 	subu	v1,v1,a0
  404a28:	00651821 	addu	v1,v1,a1
  404a2c:	afa30008 	sw	v1,8(sp)
  404a30:	8fa20000 	lw	v0,0(sp)
  404a34:	8fa30004 	lw	v1,4(sp)
  404a38:	8fa40008 	lw	a0,8(sp)
  404a3c:	00431021 	addu	v0,v0,v1
  404a40:	00441023 	subu	v0,v0,a0
  404a44:	00451021 	addu	v0,v0,a1
  404a48:	afa20004 	sw	v0,4(sp)
  404a4c:	8fa30000 	lw	v1,0(sp)
  404a50:	8fa20004 	lw	v0,4(sp)
  404a54:	8fa40008 	lw	a0,8(sp)
  404a58:	00621821 	addu	v1,v1,v0
  404a5c:	00641823 	subu	v1,v1,a0
  404a60:	00651821 	addu	v1,v1,a1
  404a64:	afa30000 	sw	v1,0(sp)
  404a68:	8fa20000 	lw	v0,0(sp)
  404a6c:	8fa30004 	lw	v1,4(sp)
  404a70:	8fa40008 	lw	a0,8(sp)
  404a74:	00431021 	addu	v0,v0,v1
  404a78:	00441023 	subu	v0,v0,a0
  404a7c:	00451021 	addu	v0,v0,a1
  404a80:	afa20008 	sw	v0,8(sp)
  404a84:	8fa30000 	lw	v1,0(sp)
  404a88:	8fa20004 	lw	v0,4(sp)
  404a8c:	8fa40008 	lw	a0,8(sp)
  404a90:	00621821 	addu	v1,v1,v0
  404a94:	00641823 	subu	v1,v1,a0
  404a98:	00651821 	addu	v1,v1,a1
  404a9c:	afa30004 	sw	v1,4(sp)
  404aa0:	8fa20000 	lw	v0,0(sp)
  404aa4:	8fa30004 	lw	v1,4(sp)
  404aa8:	8fa40008 	lw	a0,8(sp)
  404aac:	00431021 	addu	v0,v0,v1
  404ab0:	00441023 	subu	v0,v0,a0
  404ab4:	00451021 	addu	v0,v0,a1
  404ab8:	afa20000 	sw	v0,0(sp)
  404abc:	8fa30000 	lw	v1,0(sp)
  404ac0:	8fa20004 	lw	v0,4(sp)
  404ac4:	8fa40008 	lw	a0,8(sp)
  404ac8:	00621821 	addu	v1,v1,v0
  404acc:	00641823 	subu	v1,v1,a0
  404ad0:	00651821 	addu	v1,v1,a1
  404ad4:	afa30004 	sw	v1,4(sp)
  404ad8:	8fa20000 	lw	v0,0(sp)
  404adc:	8fa30004 	lw	v1,4(sp)
  404ae0:	8fa40008 	lw	a0,8(sp)
  404ae4:	00431021 	addu	v0,v0,v1
  404ae8:	00441023 	subu	v0,v0,a0
  404aec:	00451021 	addu	v0,v0,a1
  404af0:	afa20000 	sw	v0,0(sp)
  404af4:	8fa30000 	lw	v1,0(sp)
  404af8:	8fa20004 	lw	v0,4(sp)
  404afc:	8fa40008 	lw	a0,8(sp)
  404b00:	00621821 	addu	v1,v1,v0
  404b04:	00641823 	subu	v1,v1,a0
  404b08:	00651821 	addu	v1,v1,a1
  404b0c:	afa30008 	sw	v1,8(sp)
  404b10:	8fa20000 	lw	v0,0(sp)
  404b14:	8fa30004 	lw	v1,4(sp)
  404b18:	8fa40008 	lw	a0,8(sp)
  404b1c:	00431021 	addu	v0,v0,v1
  404b20:	00441023 	subu	v0,v0,a0
  404b24:	00451021 	addu	v0,v0,a1
  404b28:	afa20004 	sw	v0,4(sp)
  404b2c:	8fa30000 	lw	v1,0(sp)
  404b30:	8fa20004 	lw	v0,4(sp)
  404b34:	8fa40008 	lw	a0,8(sp)
  404b38:	00621821 	addu	v1,v1,v0
  404b3c:	00641823 	subu	v1,v1,a0
  404b40:	00651821 	addu	v1,v1,a1
  404b44:	afa30000 	sw	v1,0(sp)
  404b48:	8fa20000 	lw	v0,0(sp)
  404b4c:	8fa30004 	lw	v1,4(sp)
  404b50:	8fa40008 	lw	a0,8(sp)
  404b54:	00431021 	addu	v0,v0,v1
  404b58:	00441023 	subu	v0,v0,a0
  404b5c:	00451021 	addu	v0,v0,a1
  404b60:	afa20008 	sw	v0,8(sp)
  404b64:	8fa30000 	lw	v1,0(sp)
  404b68:	8fa20004 	lw	v0,4(sp)
  404b6c:	8fa40008 	lw	a0,8(sp)
  404b70:	00621821 	addu	v1,v1,v0
  404b74:	00641823 	subu	v1,v1,a0
  404b78:	00651821 	addu	v1,v1,a1
  404b7c:	afa30004 	sw	v1,4(sp)
  404b80:	8fa20000 	lw	v0,0(sp)
  404b84:	8fa30004 	lw	v1,4(sp)
  404b88:	8fa40008 	lw	a0,8(sp)
  404b8c:	00431021 	addu	v0,v0,v1
  404b90:	00441023 	subu	v0,v0,a0
  404b94:	00451021 	addu	v0,v0,a1
  404b98:	afa20000 	sw	v0,0(sp)
  404b9c:	8fa30000 	lw	v1,0(sp)
  404ba0:	8fa20004 	lw	v0,4(sp)
  404ba4:	8fa40008 	lw	a0,8(sp)
  404ba8:	00621821 	addu	v1,v1,v0
  404bac:	00641823 	subu	v1,v1,a0
  404bb0:	00651821 	addu	v1,v1,a1
  404bb4:	24a50001 	addiu	a1,a1,1
  404bb8:	afa30004 	sw	v1,4(sp)
  404bbc:	14a6ff8e 	bne	a1,a2,4049f8 <func_11+0x450>
  404bc0:	00000000 	nop
  404bc4:	8fa20000 	lw	v0,0(sp)
  404bc8:	8fa30004 	lw	v1,4(sp)
  404bcc:	8fa40008 	lw	a0,8(sp)
  404bd0:	00431021 	addu	v0,v0,v1
  404bd4:	00441021 	addu	v0,v0,a0
  404bd8:	03e00008 	jr	ra
  404bdc:	27bd0010 	addiu	sp,sp,16

00404be0 <func_12>:
  404be0:	27bdfff0 	addiu	sp,sp,-16
  404be4:	2402000a 	li	v0,10
  404be8:	afa20000 	sw	v0,0(sp)
  404bec:	2403000b 	li	v1,11
  404bf0:	2402000c 	li	v0,12
  404bf4:	afa30004 	sw	v1,4(sp)
  404bf8:	00002821 	move	a1,zero
  404bfc:	afa20008 	sw	v0,8(sp)
  404c00:	24060002 	li	a2,2
  404c04:	8fa20000 	lw	v0,0(sp)
  404c08:	8fa30004 	lw	v1,4(sp)
  404c0c:	8fa40008 	lw	a0,8(sp)
  404c10:	00431021 	addu	v0,v0,v1
  404c14:	00441023 	subu	v0,v0,a0
  404c18:	00451021 	addu	v0,v0,a1
  404c1c:	afa20000 	sw	v0,0(sp)
  404c20:	8fa30000 	lw	v1,0(sp)
  404c24:	8fa20004 	lw	v0,4(sp)
  404c28:	8fa40008 	lw	a0,8(sp)
  404c2c:	00621821 	addu	v1,v1,v0
  404c30:	00641823 	subu	v1,v1,a0
  404c34:	00651821 	addu	v1,v1,a1
  404c38:	afa30004 	sw	v1,4(sp)
  404c3c:	8fa20000 	lw	v0,0(sp)
  404c40:	8fa30004 	lw	v1,4(sp)
  404c44:	8fa40008 	lw	a0,8(sp)
  404c48:	00431021 	addu	v0,v0,v1
  404c4c:	00441023 	subu	v0,v0,a0
  404c50:	00451021 	addu	v0,v0,a1
  404c54:	afa20008 	sw	v0,8(sp)
  404c58:	8fa30000 	lw	v1,0(sp)
  404c5c:	8fa20004 	lw	v0,4(sp)
  404c60:	8fa40008 	lw	a0,8(sp)
  404c64:	00621821 	addu	v1,v1,v0
  404c68:	00641823 	subu	v1,v1,a0
  404c6c:	00651821 	addu	v1,v1,a1
  404c70:	afa30000 	sw	v1,0(sp)
  404c74:	8fa20000 	lw	v0,0(sp)
  404c78:	8fa30004 	lw	v1,4(sp)
  404c7c:	8fa40008 	lw	a0,8(sp)
  404c80:	00431021 	addu	v0,v0,v1
  404c84:	00441023 	subu	v0,v0,a0
  404c88:	00451021 	addu	v0,v0,a1
  404c8c:	afa20004 	sw	v0,4(sp)
  404c90:	8fa30000 	lw	v1,0(sp)
  404c94:	8fa20004 	lw	v0,4(sp)
  404c98:	8fa40008 	lw	a0,8(sp)
  404c9c:	00621821 	addu	v1,v1,v0
  404ca0:	00641823 	subu	v1,v1,a0
  404ca4:	00651821 	addu	v1,v1,a1
  404ca8:	afa30008 	sw	v1,8(sp)
  404cac:	8fa20000 	lw	v0,0(sp)
  404cb0:	8fa30004 	lw	v1,4(sp)
  404cb4:	8fa40008 	lw	a0,8(sp)
  404cb8:	00431021 	addu	v0,v0,v1
  404cbc:	00441023 	subu	v0,v0,a0
  404cc0:	00451021 	addu	v0,v0,a1
  404cc4:	afa20000 	sw	v0,0(sp)
  404cc8:	8fa30000 	lw	v1,0(sp)
  404ccc:	8fa20004 	lw	v0,4(sp)
  404cd0:	8fa40008 	lw	a0,8(sp)
  404cd4:	00621821 	addu	v1,v1,v0
  404cd8:	00641823 	subu	v1,v1,a0
  404cdc:	00651821 	addu	v1,v1,a1
  404ce0:	afa30004 	sw	v1,4(sp)
  404ce4:	8fa20000 	lw	v0,0(sp)
  404ce8:	8fa30004 	lw	v1,4(sp)
  404cec:	8fa40008 	lw	a0,8(sp)
  404cf0:	00431021 	addu	v0,v0,v1
  404cf4:	00441023 	subu	v0,v0,a0
  404cf8:	00451021 	addu	v0,v0,a1
  404cfc:	afa20008 	sw	v0,8(sp)
  404d00:	8fa30000 	lw	v1,0(sp)
  404d04:	8fa20004 	lw	v0,4(sp)
  404d08:	8fa40008 	lw	a0,8(sp)
  404d0c:	00621821 	addu	v1,v1,v0
  404d10:	00641823 	subu	v1,v1,a0
  404d14:	00651821 	addu	v1,v1,a1
  404d18:	afa30000 	sw	v1,0(sp)
  404d1c:	8fa20000 	lw	v0,0(sp)
  404d20:	8fa30004 	lw	v1,4(sp)
  404d24:	8fa40008 	lw	a0,8(sp)
  404d28:	00431021 	addu	v0,v0,v1
  404d2c:	00441023 	subu	v0,v0,a0
  404d30:	00451021 	addu	v0,v0,a1
  404d34:	afa20004 	sw	v0,4(sp)
  404d38:	8fa30000 	lw	v1,0(sp)
  404d3c:	8fa20004 	lw	v0,4(sp)
  404d40:	8fa40008 	lw	a0,8(sp)
  404d44:	00621821 	addu	v1,v1,v0
  404d48:	00641823 	subu	v1,v1,a0
  404d4c:	00651821 	addu	v1,v1,a1
  404d50:	afa30008 	sw	v1,8(sp)
  404d54:	8fa20000 	lw	v0,0(sp)
  404d58:	8fa30004 	lw	v1,4(sp)
  404d5c:	8fa40008 	lw	a0,8(sp)
  404d60:	00431021 	addu	v0,v0,v1
  404d64:	00441023 	subu	v0,v0,a0
  404d68:	00451021 	addu	v0,v0,a1
  404d6c:	afa20000 	sw	v0,0(sp)
  404d70:	8fa30000 	lw	v1,0(sp)
  404d74:	8fa20004 	lw	v0,4(sp)
  404d78:	8fa40008 	lw	a0,8(sp)
  404d7c:	00621821 	addu	v1,v1,v0
  404d80:	00641823 	subu	v1,v1,a0
  404d84:	00651821 	addu	v1,v1,a1
  404d88:	afa30004 	sw	v1,4(sp)
  404d8c:	8fa20000 	lw	v0,0(sp)
  404d90:	8fa30004 	lw	v1,4(sp)
  404d94:	8fa40008 	lw	a0,8(sp)
  404d98:	00431021 	addu	v0,v0,v1
  404d9c:	00441023 	subu	v0,v0,a0
  404da0:	00451021 	addu	v0,v0,a1
  404da4:	afa20008 	sw	v0,8(sp)
  404da8:	8fa30000 	lw	v1,0(sp)
  404dac:	8fa20004 	lw	v0,4(sp)
  404db0:	8fa40008 	lw	a0,8(sp)
  404db4:	00621821 	addu	v1,v1,v0
  404db8:	00641823 	subu	v1,v1,a0
  404dbc:	00651821 	addu	v1,v1,a1
  404dc0:	24a50001 	addiu	a1,a1,1
  404dc4:	afa30000 	sw	v1,0(sp)
  404dc8:	14a6ff8e 	bne	a1,a2,404c04 <func_12+0x24>
  404dcc:	00000000 	nop
  404dd0:	00002821 	move	a1,zero
  404dd4:	24060002 	li	a2,2
  404dd8:	8fa20000 	lw	v0,0(sp)
  404ddc:	8fa30004 	lw	v1,4(sp)
  404de0:	8fa40008 	lw	a0,8(sp)
  404de4:	00431021 	addu	v0,v0,v1
  404de8:	00441023 	subu	v0,v0,a0
  404dec:	00451021 	addu	v0,v0,a1
  404df0:	afa20004 	sw	v0,4(sp)
  404df4:	8fa30000 	lw	v1,0(sp)
  404df8:	8fa20004 	lw	v0,4(sp)
  404dfc:	8fa40008 	lw	a0,8(sp)
  404e00:	00621821 	addu	v1,v1,v0
  404e04:	00641823 	subu	v1,v1,a0
  404e08:	00651821 	addu	v1,v1,a1
  404e0c:	afa30000 	sw	v1,0(sp)
  404e10:	8fa20000 	lw	v0,0(sp)
  404e14:	8fa30004 	lw	v1,4(sp)
  404e18:	8fa40008 	lw	a0,8(sp)
  404e1c:	00431021 	addu	v0,v0,v1
  404e20:	00441023 	subu	v0,v0,a0
  404e24:	00451021 	addu	v0,v0,a1
  404e28:	afa20008 	sw	v0,8(sp)
  404e2c:	8fa30000 	lw	v1,0(sp)
  404e30:	8fa20004 	lw	v0,4(sp)
  404e34:	8fa40008 	lw	a0,8(sp)
  404e38:	00621821 	addu	v1,v1,v0
  404e3c:	00641823 	subu	v1,v1,a0
  404e40:	00651821 	addu	v1,v1,a1
  404e44:	afa30004 	sw	v1,4(sp)
  404e48:	8fa20000 	lw	v0,0(sp)
  404e4c:	8fa30004 	lw	v1,4(sp)
  404e50:	8fa40008 	lw	a0,8(sp)
  404e54:	00431021 	addu	v0,v0,v1
  404e58:	00441023 	subu	v0,v0,a0
  404e5c:	00451021 	addu	v0,v0,a1
  404e60:	afa20004 	sw	v0,4(sp)
  404e64:	8fa30000 	lw	v1,0(sp)
  404e68:	8fa20004 	lw	v0,4(sp)
  404e6c:	8fa40008 	lw	a0,8(sp)
  404e70:	00621821 	addu	v1,v1,v0
  404e74:	00641823 	subu	v1,v1,a0
  404e78:	00651821 	addu	v1,v1,a1
  404e7c:	afa30000 	sw	v1,0(sp)
  404e80:	8fa20000 	lw	v0,0(sp)
  404e84:	8fa30004 	lw	v1,4(sp)
  404e88:	8fa40008 	lw	a0,8(sp)
  404e8c:	00431021 	addu	v0,v0,v1
  404e90:	00441023 	subu	v0,v0,a0
  404e94:	00451021 	addu	v0,v0,a1
  404e98:	afa20008 	sw	v0,8(sp)
  404e9c:	8fa30000 	lw	v1,0(sp)
  404ea0:	8fa20004 	lw	v0,4(sp)
  404ea4:	8fa40008 	lw	a0,8(sp)
  404ea8:	00621821 	addu	v1,v1,v0
  404eac:	00641823 	subu	v1,v1,a0
  404eb0:	00651821 	addu	v1,v1,a1
  404eb4:	afa30004 	sw	v1,4(sp)
  404eb8:	8fa20000 	lw	v0,0(sp)
  404ebc:	8fa30004 	lw	v1,4(sp)
  404ec0:	8fa40008 	lw	a0,8(sp)
  404ec4:	00431021 	addu	v0,v0,v1
  404ec8:	00441023 	subu	v0,v0,a0
  404ecc:	00451021 	addu	v0,v0,a1
  404ed0:	afa20000 	sw	v0,0(sp)
  404ed4:	8fa30000 	lw	v1,0(sp)
  404ed8:	8fa20004 	lw	v0,4(sp)
  404edc:	8fa40008 	lw	a0,8(sp)
  404ee0:	00621821 	addu	v1,v1,v0
  404ee4:	00641823 	subu	v1,v1,a0
  404ee8:	00651821 	addu	v1,v1,a1
  404eec:	afa30008 	sw	v1,8(sp)
  404ef0:	8fa20000 	lw	v0,0(sp)
  404ef4:	8fa30004 	lw	v1,4(sp)
  404ef8:	8fa40008 	lw	a0,8(sp)
  404efc:	00431021 	addu	v0,v0,v1
  404f00:	00441023 	subu	v0,v0,a0
  404f04:	00451021 	addu	v0,v0,a1
  404f08:	afa20004 	sw	v0,4(sp)
  404f0c:	8fa30000 	lw	v1,0(sp)
  404f10:	8fa20004 	lw	v0,4(sp)
  404f14:	8fa40008 	lw	a0,8(sp)
  404f18:	00621821 	addu	v1,v1,v0
  404f1c:	00641823 	subu	v1,v1,a0
  404f20:	00651821 	addu	v1,v1,a1
  404f24:	afa30000 	sw	v1,0(sp)
  404f28:	8fa20000 	lw	v0,0(sp)
  404f2c:	8fa30004 	lw	v1,4(sp)
  404f30:	8fa40008 	lw	a0,8(sp)
  404f34:	00431021 	addu	v0,v0,v1
  404f38:	00441023 	subu	v0,v0,a0
  404f3c:	00451021 	addu	v0,v0,a1
  404f40:	24a50001 	addiu	a1,a1,1
  404f44:	afa20008 	sw	v0,8(sp)
  404f48:	14a6ffa3 	bne	a1,a2,404dd8 <func_12+0x1f8>
  404f4c:	00000000 	nop
  404f50:	00002821 	move	a1,zero
  404f54:	24060002 	li	a2,2
  404f58:	8fa20000 	lw	v0,0(sp)
  404f5c:	8fa30004 	lw	v1,4(sp)
  404f60:	8fa40008 	lw	a0,8(sp)
  404f64:	00431021 	addu	v0,v0,v1
  404f68:	00441023 	subu	v0,v0,a0
  404f6c:	00451021 	addu	v0,v0,a1
  404f70:	afa20008 	sw	v0,8(sp)
  404f74:	8fa30000 	lw	v1,0(sp)
  404f78:	8fa20004 	lw	v0,4(sp)
  404f7c:	8fa40008 	lw	a0,8(sp)
  404f80:	00621821 	addu	v1,v1,v0
  404f84:	00641823 	subu	v1,v1,a0
  404f88:	00651821 	addu	v1,v1,a1
  404f8c:	afa30004 	sw	v1,4(sp)
  404f90:	8fa20000 	lw	v0,0(sp)
  404f94:	8fa30004 	lw	v1,4(sp)
  404f98:	8fa40008 	lw	a0,8(sp)
  404f9c:	00431021 	addu	v0,v0,v1
  404fa0:	00441023 	subu	v0,v0,a0
  404fa4:	00451021 	addu	v0,v0,a1
  404fa8:	afa20000 	sw	v0,0(sp)
  404fac:	8fa30000 	lw	v1,0(sp)
  404fb0:	8fa20004 	lw	v0,4(sp)
  404fb4:	8fa40008 	lw	a0,8(sp)
  404fb8:	00621821 	addu	v1,v1,v0
  404fbc:	00641823 	subu	v1,v1,a0
  404fc0:	00651821 	addu	v1,v1,a1
  404fc4:	afa30008 	sw	v1,8(sp)
  404fc8:	8fa20000 	lw	v0,0(sp)
  404fcc:	8fa30004 	lw	v1,4(sp)
  404fd0:	8fa40008 	lw	a0,8(sp)
  404fd4:	00431021 	addu	v0,v0,v1
  404fd8:	00441023 	subu	v0,v0,a0
  404fdc:	00451021 	addu	v0,v0,a1
  404fe0:	afa20004 	sw	v0,4(sp)
  404fe4:	8fa30000 	lw	v1,0(sp)
  404fe8:	8fa20004 	lw	v0,4(sp)
  404fec:	8fa40008 	lw	a0,8(sp)
  404ff0:	00621821 	addu	v1,v1,v0
  404ff4:	00641823 	subu	v1,v1,a0
  404ff8:	00651821 	addu	v1,v1,a1
  404ffc:	afa30000 	sw	v1,0(sp)
  405000:	8fa20000 	lw	v0,0(sp)
  405004:	8fa30004 	lw	v1,4(sp)
  405008:	8fa40008 	lw	a0,8(sp)
  40500c:	00431021 	addu	v0,v0,v1
  405010:	00441023 	subu	v0,v0,a0
  405014:	00451021 	addu	v0,v0,a1
  405018:	24a50001 	addiu	a1,a1,1
  40501c:	afa20008 	sw	v0,8(sp)
  405020:	14a6ffcd 	bne	a1,a2,404f58 <func_12+0x378>
  405024:	00000000 	nop
  405028:	00002821 	move	a1,zero
  40502c:	24060002 	li	a2,2
  405030:	8fa20000 	lw	v0,0(sp)
  405034:	8fa30004 	lw	v1,4(sp)
  405038:	8fa40008 	lw	a0,8(sp)
  40503c:	00431021 	addu	v0,v0,v1
  405040:	00441023 	subu	v0,v0,a0
  405044:	00451021 	addu	v0,v0,a1
  405048:	afa20000 	sw	v0,0(sp)
  40504c:	8fa30000 	lw	v1,0(sp)
  405050:	8fa20004 	lw	v0,4(sp)
  405054:	8fa40008 	lw	a0,8(sp)
  405058:	00621821 	addu	v1,v1,v0
  40505c:	00641823 	subu	v1,v1,a0
  405060:	00651821 	addu	v1,v1,a1
  405064:	afa30008 	sw	v1,8(sp)
  405068:	8fa20000 	lw	v0,0(sp)
  40506c:	8fa30004 	lw	v1,4(sp)
  405070:	8fa40008 	lw	a0,8(sp)
  405074:	00431021 	addu	v0,v0,v1
  405078:	00441023 	subu	v0,v0,a0
  40507c:	00451021 	addu	v0,v0,a1
  405080:	afa20004 	sw	v0,4(sp)
  405084:	8fa30000 	lw	v1,0(sp)
  405088:	8fa20004 	lw	v0,4(sp)
  40508c:	8fa40008 	lw	a0,8(sp)
  405090:	00621821 	addu	v1,v1,v0
  405094:	00641823 	subu	v1,v1,a0
  405098:	00651821 	addu	v1,v1,a1
  40509c:	afa30000 	sw	v1,0(sp)
  4050a0:	8fa20000 	lw	v0,0(sp)
  4050a4:	8fa30004 	lw	v1,4(sp)
  4050a8:	8fa40008 	lw	a0,8(sp)
  4050ac:	00431021 	addu	v0,v0,v1
  4050b0:	00441023 	subu	v0,v0,a0
  4050b4:	00451021 	addu	v0,v0,a1
  4050b8:	afa20008 	sw	v0,8(sp)
  4050bc:	8fa30000 	lw	v1,0(sp)
  4050c0:	8fa20004 	lw	v0,4(sp)
  4050c4:	8fa40008 	lw	a0,8(sp)
  4050c8:	00621821 	addu	v1,v1,v0
  4050cc:	00641823 	subu	v1,v1,a0
  4050d0:	00651821 	addu	v1,v1,a1
  4050d4:	afa30004 	sw	v1,4(sp)
  4050d8:	8fa20000 	lw	v0,0(sp)
  4050dc:	8fa30004 	lw	v1,4(sp)
  4050e0:	8fa40008 	lw	a0,8(sp)
  4050e4:	00431021 	addu	v0,v0,v1
  4050e8:	00441023 	subu	v0,v0,a0
  4050ec:	00451021 	addu	v0,v0,a1
  4050f0:	afa20000 	sw	v0,0(sp)
  4050f4:	8fa30000 	lw	v1,0(sp)
  4050f8:	8fa20004 	lw	v0,4(sp)
  4050fc:	8fa40008 	lw	a0,8(sp)
  405100:	00621821 	addu	v1,v1,v0
  405104:	00641823 	subu	v1,v1,a0
  405108:	00651821 	addu	v1,v1,a1
  40510c:	afa30004 	sw	v1,4(sp)
  405110:	8fa20000 	lw	v0,0(sp)
  405114:	8fa30004 	lw	v1,4(sp)
  405118:	8fa40008 	lw	a0,8(sp)
  40511c:	00431021 	addu	v0,v0,v1
  405120:	00441023 	subu	v0,v0,a0
  405124:	00451021 	addu	v0,v0,a1
  405128:	afa20000 	sw	v0,0(sp)
  40512c:	8fa30000 	lw	v1,0(sp)
  405130:	8fa20004 	lw	v0,4(sp)
  405134:	8fa40008 	lw	a0,8(sp)
  405138:	00621821 	addu	v1,v1,v0
  40513c:	00641823 	subu	v1,v1,a0
  405140:	00651821 	addu	v1,v1,a1
  405144:	afa30008 	sw	v1,8(sp)
  405148:	8fa20000 	lw	v0,0(sp)
  40514c:	8fa30004 	lw	v1,4(sp)
  405150:	8fa40008 	lw	a0,8(sp)
  405154:	00431021 	addu	v0,v0,v1
  405158:	00441023 	subu	v0,v0,a0
  40515c:	00451021 	addu	v0,v0,a1
  405160:	afa20004 	sw	v0,4(sp)
  405164:	8fa30000 	lw	v1,0(sp)
  405168:	8fa20004 	lw	v0,4(sp)
  40516c:	8fa40008 	lw	a0,8(sp)
  405170:	00621821 	addu	v1,v1,v0
  405174:	00641823 	subu	v1,v1,a0
  405178:	00651821 	addu	v1,v1,a1
  40517c:	afa30000 	sw	v1,0(sp)
  405180:	8fa20000 	lw	v0,0(sp)
  405184:	8fa30004 	lw	v1,4(sp)
  405188:	8fa40008 	lw	a0,8(sp)
  40518c:	00431021 	addu	v0,v0,v1
  405190:	00441023 	subu	v0,v0,a0
  405194:	00451021 	addu	v0,v0,a1
  405198:	afa20008 	sw	v0,8(sp)
  40519c:	8fa30000 	lw	v1,0(sp)
  4051a0:	8fa20004 	lw	v0,4(sp)
  4051a4:	8fa40008 	lw	a0,8(sp)
  4051a8:	00621821 	addu	v1,v1,v0
  4051ac:	00641823 	subu	v1,v1,a0
  4051b0:	00651821 	addu	v1,v1,a1
  4051b4:	afa30004 	sw	v1,4(sp)
  4051b8:	8fa20000 	lw	v0,0(sp)
  4051bc:	8fa30004 	lw	v1,4(sp)
  4051c0:	8fa40008 	lw	a0,8(sp)
  4051c4:	00431021 	addu	v0,v0,v1
  4051c8:	00441023 	subu	v0,v0,a0
  4051cc:	00451021 	addu	v0,v0,a1
  4051d0:	afa20000 	sw	v0,0(sp)
  4051d4:	8fa30000 	lw	v1,0(sp)
  4051d8:	8fa20004 	lw	v0,4(sp)
  4051dc:	8fa40008 	lw	a0,8(sp)
  4051e0:	00621821 	addu	v1,v1,v0
  4051e4:	00641823 	subu	v1,v1,a0
  4051e8:	00651821 	addu	v1,v1,a1
  4051ec:	24a50001 	addiu	a1,a1,1
  4051f0:	afa30004 	sw	v1,4(sp)
  4051f4:	14a6ff8e 	bne	a1,a2,405030 <func_12+0x450>
  4051f8:	00000000 	nop
  4051fc:	8fa20000 	lw	v0,0(sp)
  405200:	8fa30004 	lw	v1,4(sp)
  405204:	8fa40008 	lw	a0,8(sp)
  405208:	00431021 	addu	v0,v0,v1
  40520c:	00441021 	addu	v0,v0,a0
  405210:	03e00008 	jr	ra
  405214:	27bd0010 	addiu	sp,sp,16

00405218 <func_13>:
  405218:	27bdfff0 	addiu	sp,sp,-16
  40521c:	2402000a 	li	v0,10
  405220:	afa20000 	sw	v0,0(sp)
  405224:	2403000b 	li	v1,11
  405228:	2402000c 	li	v0,12
  40522c:	afa30004 	sw	v1,4(sp)
  405230:	00002821 	move	a1,zero
  405234:	afa20008 	sw	v0,8(sp)
  405238:	24060002 	li	a2,2
  40523c:	8fa20000 	lw	v0,0(sp)
  405240:	8fa30004 	lw	v1,4(sp)
  405244:	8fa40008 	lw	a0,8(sp)
  405248:	00431021 	addu	v0,v0,v1
  40524c:	00441023 	subu	v0,v0,a0
  405250:	00451021 	addu	v0,v0,a1
  405254:	afa20000 	sw	v0,0(sp)
  405258:	8fa30000 	lw	v1,0(sp)
  40525c:	8fa20004 	lw	v0,4(sp)
  405260:	8fa40008 	lw	a0,8(sp)
  405264:	00621821 	addu	v1,v1,v0
  405268:	00641823 	subu	v1,v1,a0
  40526c:	00651821 	addu	v1,v1,a1
  405270:	afa30004 	sw	v1,4(sp)
  405274:	8fa20000 	lw	v0,0(sp)
  405278:	8fa30004 	lw	v1,4(sp)
  40527c:	8fa40008 	lw	a0,8(sp)
  405280:	00431021 	addu	v0,v0,v1
  405284:	00441023 	subu	v0,v0,a0
  405288:	00451021 	addu	v0,v0,a1
  40528c:	afa20008 	sw	v0,8(sp)
  405290:	8fa30000 	lw	v1,0(sp)
  405294:	8fa20004 	lw	v0,4(sp)
  405298:	8fa40008 	lw	a0,8(sp)
  40529c:	00621821 	addu	v1,v1,v0
  4052a0:	00641823 	subu	v1,v1,a0
  4052a4:	00651821 	addu	v1,v1,a1
  4052a8:	afa30000 	sw	v1,0(sp)
  4052ac:	8fa20000 	lw	v0,0(sp)
  4052b0:	8fa30004 	lw	v1,4(sp)
  4052b4:	8fa40008 	lw	a0,8(sp)
  4052b8:	00431021 	addu	v0,v0,v1
  4052bc:	00441023 	subu	v0,v0,a0
  4052c0:	00451021 	addu	v0,v0,a1
  4052c4:	afa20004 	sw	v0,4(sp)
  4052c8:	8fa30000 	lw	v1,0(sp)
  4052cc:	8fa20004 	lw	v0,4(sp)
  4052d0:	8fa40008 	lw	a0,8(sp)
  4052d4:	00621821 	addu	v1,v1,v0
  4052d8:	00641823 	subu	v1,v1,a0
  4052dc:	00651821 	addu	v1,v1,a1
  4052e0:	afa30008 	sw	v1,8(sp)
  4052e4:	8fa20000 	lw	v0,0(sp)
  4052e8:	8fa30004 	lw	v1,4(sp)
  4052ec:	8fa40008 	lw	a0,8(sp)
  4052f0:	00431021 	addu	v0,v0,v1
  4052f4:	00441023 	subu	v0,v0,a0
  4052f8:	00451021 	addu	v0,v0,a1
  4052fc:	afa20000 	sw	v0,0(sp)
  405300:	8fa30000 	lw	v1,0(sp)
  405304:	8fa20004 	lw	v0,4(sp)
  405308:	8fa40008 	lw	a0,8(sp)
  40530c:	00621821 	addu	v1,v1,v0
  405310:	00641823 	subu	v1,v1,a0
  405314:	00651821 	addu	v1,v1,a1
  405318:	afa30004 	sw	v1,4(sp)
  40531c:	8fa20000 	lw	v0,0(sp)
  405320:	8fa30004 	lw	v1,4(sp)
  405324:	8fa40008 	lw	a0,8(sp)
  405328:	00431021 	addu	v0,v0,v1
  40532c:	00441023 	subu	v0,v0,a0
  405330:	00451021 	addu	v0,v0,a1
  405334:	afa20008 	sw	v0,8(sp)
  405338:	8fa30000 	lw	v1,0(sp)
  40533c:	8fa20004 	lw	v0,4(sp)
  405340:	8fa40008 	lw	a0,8(sp)
  405344:	00621821 	addu	v1,v1,v0
  405348:	00641823 	subu	v1,v1,a0
  40534c:	00651821 	addu	v1,v1,a1
  405350:	afa30000 	sw	v1,0(sp)
  405354:	8fa20000 	lw	v0,0(sp)
  405358:	8fa30004 	lw	v1,4(sp)
  40535c:	8fa40008 	lw	a0,8(sp)
  405360:	00431021 	addu	v0,v0,v1
  405364:	00441023 	subu	v0,v0,a0
  405368:	00451021 	addu	v0,v0,a1
  40536c:	afa20004 	sw	v0,4(sp)
  405370:	8fa30000 	lw	v1,0(sp)
  405374:	8fa20004 	lw	v0,4(sp)
  405378:	8fa40008 	lw	a0,8(sp)
  40537c:	00621821 	addu	v1,v1,v0
  405380:	00641823 	subu	v1,v1,a0
  405384:	00651821 	addu	v1,v1,a1
  405388:	afa30008 	sw	v1,8(sp)
  40538c:	8fa20000 	lw	v0,0(sp)
  405390:	8fa30004 	lw	v1,4(sp)
  405394:	8fa40008 	lw	a0,8(sp)
  405398:	00431021 	addu	v0,v0,v1
  40539c:	00441023 	subu	v0,v0,a0
  4053a0:	00451021 	addu	v0,v0,a1
  4053a4:	afa20000 	sw	v0,0(sp)
  4053a8:	8fa30000 	lw	v1,0(sp)
  4053ac:	8fa20004 	lw	v0,4(sp)
  4053b0:	8fa40008 	lw	a0,8(sp)
  4053b4:	00621821 	addu	v1,v1,v0
  4053b8:	00641823 	subu	v1,v1,a0
  4053bc:	00651821 	addu	v1,v1,a1
  4053c0:	afa30004 	sw	v1,4(sp)
  4053c4:	8fa20000 	lw	v0,0(sp)
  4053c8:	8fa30004 	lw	v1,4(sp)
  4053cc:	8fa40008 	lw	a0,8(sp)
  4053d0:	00431021 	addu	v0,v0,v1
  4053d4:	00441023 	subu	v0,v0,a0
  4053d8:	00451021 	addu	v0,v0,a1
  4053dc:	afa20008 	sw	v0,8(sp)
  4053e0:	8fa30000 	lw	v1,0(sp)
  4053e4:	8fa20004 	lw	v0,4(sp)
  4053e8:	8fa40008 	lw	a0,8(sp)
  4053ec:	00621821 	addu	v1,v1,v0
  4053f0:	00641823 	subu	v1,v1,a0
  4053f4:	00651821 	addu	v1,v1,a1
  4053f8:	24a50001 	addiu	a1,a1,1
  4053fc:	afa30000 	sw	v1,0(sp)
  405400:	14a6ff8e 	bne	a1,a2,40523c <func_13+0x24>
  405404:	00000000 	nop
  405408:	00002821 	move	a1,zero
  40540c:	24060002 	li	a2,2
  405410:	8fa20000 	lw	v0,0(sp)
  405414:	8fa30004 	lw	v1,4(sp)
  405418:	8fa40008 	lw	a0,8(sp)
  40541c:	00431021 	addu	v0,v0,v1
  405420:	00441023 	subu	v0,v0,a0
  405424:	00451021 	addu	v0,v0,a1
  405428:	afa20004 	sw	v0,4(sp)
  40542c:	8fa30000 	lw	v1,0(sp)
  405430:	8fa20004 	lw	v0,4(sp)
  405434:	8fa40008 	lw	a0,8(sp)
  405438:	00621821 	addu	v1,v1,v0
  40543c:	00641823 	subu	v1,v1,a0
  405440:	00651821 	addu	v1,v1,a1
  405444:	afa30000 	sw	v1,0(sp)
  405448:	8fa20000 	lw	v0,0(sp)
  40544c:	8fa30004 	lw	v1,4(sp)
  405450:	8fa40008 	lw	a0,8(sp)
  405454:	00431021 	addu	v0,v0,v1
  405458:	00441023 	subu	v0,v0,a0
  40545c:	00451021 	addu	v0,v0,a1
  405460:	afa20008 	sw	v0,8(sp)
  405464:	8fa30000 	lw	v1,0(sp)
  405468:	8fa20004 	lw	v0,4(sp)
  40546c:	8fa40008 	lw	a0,8(sp)
  405470:	00621821 	addu	v1,v1,v0
  405474:	00641823 	subu	v1,v1,a0
  405478:	00651821 	addu	v1,v1,a1
  40547c:	afa30004 	sw	v1,4(sp)
  405480:	8fa20000 	lw	v0,0(sp)
  405484:	8fa30004 	lw	v1,4(sp)
  405488:	8fa40008 	lw	a0,8(sp)
  40548c:	00431021 	addu	v0,v0,v1
  405490:	00441023 	subu	v0,v0,a0
  405494:	00451021 	addu	v0,v0,a1
  405498:	afa20004 	sw	v0,4(sp)
  40549c:	8fa30000 	lw	v1,0(sp)
  4054a0:	8fa20004 	lw	v0,4(sp)
  4054a4:	8fa40008 	lw	a0,8(sp)
  4054a8:	00621821 	addu	v1,v1,v0
  4054ac:	00641823 	subu	v1,v1,a0
  4054b0:	00651821 	addu	v1,v1,a1
  4054b4:	afa30000 	sw	v1,0(sp)
  4054b8:	8fa20000 	lw	v0,0(sp)
  4054bc:	8fa30004 	lw	v1,4(sp)
  4054c0:	8fa40008 	lw	a0,8(sp)
  4054c4:	00431021 	addu	v0,v0,v1
  4054c8:	00441023 	subu	v0,v0,a0
  4054cc:	00451021 	addu	v0,v0,a1
  4054d0:	afa20008 	sw	v0,8(sp)
  4054d4:	8fa30000 	lw	v1,0(sp)
  4054d8:	8fa20004 	lw	v0,4(sp)
  4054dc:	8fa40008 	lw	a0,8(sp)
  4054e0:	00621821 	addu	v1,v1,v0
  4054e4:	00641823 	subu	v1,v1,a0
  4054e8:	00651821 	addu	v1,v1,a1
  4054ec:	afa30004 	sw	v1,4(sp)
  4054f0:	8fa20000 	lw	v0,0(sp)
  4054f4:	8fa30004 	lw	v1,4(sp)
  4054f8:	8fa40008 	lw	a0,8(sp)
  4054fc:	00431021 	addu	v0,v0,v1
  405500:	00441023 	subu	v0,v0,a0
  405504:	00451021 	addu	v0,v0,a1
  405508:	afa20000 	sw	v0,0(sp)
  40550c:	8fa30000 	lw	v1,0(sp)
  405510:	8fa20004 	lw	v0,4(sp)
  405514:	8fa40008 	lw	a0,8(sp)
  405518:	00621821 	addu	v1,v1,v0
  40551c:	00641823 	subu	v1,v1,a0
  405520:	00651821 	addu	v1,v1,a1
  405524:	afa30008 	sw	v1,8(sp)
  405528:	8fa20000 	lw	v0,0(sp)
  40552c:	8fa30004 	lw	v1,4(sp)
  405530:	8fa40008 	lw	a0,8(sp)
  405534:	00431021 	addu	v0,v0,v1
  405538:	00441023 	subu	v0,v0,a0
  40553c:	00451021 	addu	v0,v0,a1
  405540:	afa20004 	sw	v0,4(sp)
  405544:	8fa30000 	lw	v1,0(sp)
  405548:	8fa20004 	lw	v0,4(sp)
  40554c:	8fa40008 	lw	a0,8(sp)
  405550:	00621821 	addu	v1,v1,v0
  405554:	00641823 	subu	v1,v1,a0
  405558:	00651821 	addu	v1,v1,a1
  40555c:	afa30000 	sw	v1,0(sp)
  405560:	8fa20000 	lw	v0,0(sp)
  405564:	8fa30004 	lw	v1,4(sp)
  405568:	8fa40008 	lw	a0,8(sp)
  40556c:	00431021 	addu	v0,v0,v1
  405570:	00441023 	subu	v0,v0,a0
  405574:	00451021 	addu	v0,v0,a1
  405578:	24a50001 	addiu	a1,a1,1
  40557c:	afa20008 	sw	v0,8(sp)
  405580:	14a6ffa3 	bne	a1,a2,405410 <func_13+0x1f8>
  405584:	00000000 	nop
  405588:	00002821 	move	a1,zero
  40558c:	24060002 	li	a2,2
  405590:	8fa20000 	lw	v0,0(sp)
  405594:	8fa30004 	lw	v1,4(sp)
  405598:	8fa40008 	lw	a0,8(sp)
  40559c:	00431021 	addu	v0,v0,v1
  4055a0:	00441023 	subu	v0,v0,a0
  4055a4:	00451021 	addu	v0,v0,a1
  4055a8:	afa20008 	sw	v0,8(sp)
  4055ac:	8fa30000 	lw	v1,0(sp)
  4055b0:	8fa20004 	lw	v0,4(sp)
  4055b4:	8fa40008 	lw	a0,8(sp)
  4055b8:	00621821 	addu	v1,v1,v0
  4055bc:	00641823 	subu	v1,v1,a0
  4055c0:	00651821 	addu	v1,v1,a1
  4055c4:	afa30004 	sw	v1,4(sp)
  4055c8:	8fa20000 	lw	v0,0(sp)
  4055cc:	8fa30004 	lw	v1,4(sp)
  4055d0:	8fa40008 	lw	a0,8(sp)
  4055d4:	00431021 	addu	v0,v0,v1
  4055d8:	00441023 	subu	v0,v0,a0
  4055dc:	00451021 	addu	v0,v0,a1
  4055e0:	afa20000 	sw	v0,0(sp)
  4055e4:	8fa30000 	lw	v1,0(sp)
  4055e8:	8fa20004 	lw	v0,4(sp)
  4055ec:	8fa40008 	lw	a0,8(sp)
  4055f0:	00621821 	addu	v1,v1,v0
  4055f4:	00641823 	subu	v1,v1,a0
  4055f8:	00651821 	addu	v1,v1,a1
  4055fc:	afa30008 	sw	v1,8(sp)
  405600:	8fa20000 	lw	v0,0(sp)
  405604:	8fa30004 	lw	v1,4(sp)
  405608:	8fa40008 	lw	a0,8(sp)
  40560c:	00431021 	addu	v0,v0,v1
  405610:	00441023 	subu	v0,v0,a0
  405614:	00451021 	addu	v0,v0,a1
  405618:	afa20004 	sw	v0,4(sp)
  40561c:	8fa30000 	lw	v1,0(sp)
  405620:	8fa20004 	lw	v0,4(sp)
  405624:	8fa40008 	lw	a0,8(sp)
  405628:	00621821 	addu	v1,v1,v0
  40562c:	00641823 	subu	v1,v1,a0
  405630:	00651821 	addu	v1,v1,a1
  405634:	afa30000 	sw	v1,0(sp)
  405638:	8fa20000 	lw	v0,0(sp)
  40563c:	8fa30004 	lw	v1,4(sp)
  405640:	8fa40008 	lw	a0,8(sp)
  405644:	00431021 	addu	v0,v0,v1
  405648:	00441023 	subu	v0,v0,a0
  40564c:	00451021 	addu	v0,v0,a1
  405650:	24a50001 	addiu	a1,a1,1
  405654:	afa20008 	sw	v0,8(sp)
  405658:	14a6ffcd 	bne	a1,a2,405590 <func_13+0x378>
  40565c:	00000000 	nop
  405660:	00002821 	move	a1,zero
  405664:	24060002 	li	a2,2
  405668:	8fa20000 	lw	v0,0(sp)
  40566c:	8fa30004 	lw	v1,4(sp)
  405670:	8fa40008 	lw	a0,8(sp)
  405674:	00431021 	addu	v0,v0,v1
  405678:	00441023 	subu	v0,v0,a0
  40567c:	00451021 	addu	v0,v0,a1
  405680:	afa20000 	sw	v0,0(sp)
  405684:	8fa30000 	lw	v1,0(sp)
  405688:	8fa20004 	lw	v0,4(sp)
  40568c:	8fa40008 	lw	a0,8(sp)
  405690:	00621821 	addu	v1,v1,v0
  405694:	00641823 	subu	v1,v1,a0
  405698:	00651821 	addu	v1,v1,a1
  40569c:	afa30008 	sw	v1,8(sp)
  4056a0:	8fa20000 	lw	v0,0(sp)
  4056a4:	8fa30004 	lw	v1,4(sp)
  4056a8:	8fa40008 	lw	a0,8(sp)
  4056ac:	00431021 	addu	v0,v0,v1
  4056b0:	00441023 	subu	v0,v0,a0
  4056b4:	00451021 	addu	v0,v0,a1
  4056b8:	afa20004 	sw	v0,4(sp)
  4056bc:	8fa30000 	lw	v1,0(sp)
  4056c0:	8fa20004 	lw	v0,4(sp)
  4056c4:	8fa40008 	lw	a0,8(sp)
  4056c8:	00621821 	addu	v1,v1,v0
  4056cc:	00641823 	subu	v1,v1,a0
  4056d0:	00651821 	addu	v1,v1,a1
  4056d4:	afa30000 	sw	v1,0(sp)
  4056d8:	8fa20000 	lw	v0,0(sp)
  4056dc:	8fa30004 	lw	v1,4(sp)
  4056e0:	8fa40008 	lw	a0,8(sp)
  4056e4:	00431021 	addu	v0,v0,v1
  4056e8:	00441023 	subu	v0,v0,a0
  4056ec:	00451021 	addu	v0,v0,a1
  4056f0:	afa20008 	sw	v0,8(sp)
  4056f4:	8fa30000 	lw	v1,0(sp)
  4056f8:	8fa20004 	lw	v0,4(sp)
  4056fc:	8fa40008 	lw	a0,8(sp)
  405700:	00621821 	addu	v1,v1,v0
  405704:	00641823 	subu	v1,v1,a0
  405708:	00651821 	addu	v1,v1,a1
  40570c:	afa30004 	sw	v1,4(sp)
  405710:	8fa20000 	lw	v0,0(sp)
  405714:	8fa30004 	lw	v1,4(sp)
  405718:	8fa40008 	lw	a0,8(sp)
  40571c:	00431021 	addu	v0,v0,v1
  405720:	00441023 	subu	v0,v0,a0
  405724:	00451021 	addu	v0,v0,a1
  405728:	afa20000 	sw	v0,0(sp)
  40572c:	8fa30000 	lw	v1,0(sp)
  405730:	8fa20004 	lw	v0,4(sp)
  405734:	8fa40008 	lw	a0,8(sp)
  405738:	00621821 	addu	v1,v1,v0
  40573c:	00641823 	subu	v1,v1,a0
  405740:	00651821 	addu	v1,v1,a1
  405744:	afa30004 	sw	v1,4(sp)
  405748:	8fa20000 	lw	v0,0(sp)
  40574c:	8fa30004 	lw	v1,4(sp)
  405750:	8fa40008 	lw	a0,8(sp)
  405754:	00431021 	addu	v0,v0,v1
  405758:	00441023 	subu	v0,v0,a0
  40575c:	00451021 	addu	v0,v0,a1
  405760:	afa20000 	sw	v0,0(sp)
  405764:	8fa30000 	lw	v1,0(sp)
  405768:	8fa20004 	lw	v0,4(sp)
  40576c:	8fa40008 	lw	a0,8(sp)
  405770:	00621821 	addu	v1,v1,v0
  405774:	00641823 	subu	v1,v1,a0
  405778:	00651821 	addu	v1,v1,a1
  40577c:	afa30008 	sw	v1,8(sp)
  405780:	8fa20000 	lw	v0,0(sp)
  405784:	8fa30004 	lw	v1,4(sp)
  405788:	8fa40008 	lw	a0,8(sp)
  40578c:	00431021 	addu	v0,v0,v1
  405790:	00441023 	subu	v0,v0,a0
  405794:	00451021 	addu	v0,v0,a1
  405798:	afa20004 	sw	v0,4(sp)
  40579c:	8fa30000 	lw	v1,0(sp)
  4057a0:	8fa20004 	lw	v0,4(sp)
  4057a4:	8fa40008 	lw	a0,8(sp)
  4057a8:	00621821 	addu	v1,v1,v0
  4057ac:	00641823 	subu	v1,v1,a0
  4057b0:	00651821 	addu	v1,v1,a1
  4057b4:	afa30000 	sw	v1,0(sp)
  4057b8:	8fa20000 	lw	v0,0(sp)
  4057bc:	8fa30004 	lw	v1,4(sp)
  4057c0:	8fa40008 	lw	a0,8(sp)
  4057c4:	00431021 	addu	v0,v0,v1
  4057c8:	00441023 	subu	v0,v0,a0
  4057cc:	00451021 	addu	v0,v0,a1
  4057d0:	afa20008 	sw	v0,8(sp)
  4057d4:	8fa30000 	lw	v1,0(sp)
  4057d8:	8fa20004 	lw	v0,4(sp)
  4057dc:	8fa40008 	lw	a0,8(sp)
  4057e0:	00621821 	addu	v1,v1,v0
  4057e4:	00641823 	subu	v1,v1,a0
  4057e8:	00651821 	addu	v1,v1,a1
  4057ec:	afa30004 	sw	v1,4(sp)
  4057f0:	8fa20000 	lw	v0,0(sp)
  4057f4:	8fa30004 	lw	v1,4(sp)
  4057f8:	8fa40008 	lw	a0,8(sp)
  4057fc:	00431021 	addu	v0,v0,v1
  405800:	00441023 	subu	v0,v0,a0
  405804:	00451021 	addu	v0,v0,a1
  405808:	afa20000 	sw	v0,0(sp)
  40580c:	8fa30000 	lw	v1,0(sp)
  405810:	8fa20004 	lw	v0,4(sp)
  405814:	8fa40008 	lw	a0,8(sp)
  405818:	00621821 	addu	v1,v1,v0
  40581c:	00641823 	subu	v1,v1,a0
  405820:	00651821 	addu	v1,v1,a1
  405824:	24a50001 	addiu	a1,a1,1
  405828:	afa30004 	sw	v1,4(sp)
  40582c:	14a6ff8e 	bne	a1,a2,405668 <func_13+0x450>
  405830:	00000000 	nop
  405834:	8fa20000 	lw	v0,0(sp)
  405838:	8fa30004 	lw	v1,4(sp)
  40583c:	8fa40008 	lw	a0,8(sp)
  405840:	00431021 	addu	v0,v0,v1
  405844:	00441021 	addu	v0,v0,a0
  405848:	03e00008 	jr	ra
  40584c:	27bd0010 	addiu	sp,sp,16

00405850 <func_14>:
  405850:	27bdfff0 	addiu	sp,sp,-16
  405854:	2402000a 	li	v0,10
  405858:	afa20000 	sw	v0,0(sp)
  40585c:	2403000b 	li	v1,11
  405860:	2402000c 	li	v0,12
  405864:	afa30004 	sw	v1,4(sp)
  405868:	00002821 	move	a1,zero
  40586c:	afa20008 	sw	v0,8(sp)
  405870:	24060002 	li	a2,2
  405874:	8fa20000 	lw	v0,0(sp)
  405878:	8fa30004 	lw	v1,4(sp)
  40587c:	8fa40008 	lw	a0,8(sp)
  405880:	00431021 	addu	v0,v0,v1
  405884:	00441023 	subu	v0,v0,a0
  405888:	00451021 	addu	v0,v0,a1
  40588c:	afa20000 	sw	v0,0(sp)
  405890:	8fa30000 	lw	v1,0(sp)
  405894:	8fa20004 	lw	v0,4(sp)
  405898:	8fa40008 	lw	a0,8(sp)
  40589c:	00621821 	addu	v1,v1,v0
  4058a0:	00641823 	subu	v1,v1,a0
  4058a4:	00651821 	addu	v1,v1,a1
  4058a8:	afa30004 	sw	v1,4(sp)
  4058ac:	8fa20000 	lw	v0,0(sp)
  4058b0:	8fa30004 	lw	v1,4(sp)
  4058b4:	8fa40008 	lw	a0,8(sp)
  4058b8:	00431021 	addu	v0,v0,v1
  4058bc:	00441023 	subu	v0,v0,a0
  4058c0:	00451021 	addu	v0,v0,a1
  4058c4:	afa20008 	sw	v0,8(sp)
  4058c8:	8fa30000 	lw	v1,0(sp)
  4058cc:	8fa20004 	lw	v0,4(sp)
  4058d0:	8fa40008 	lw	a0,8(sp)
  4058d4:	00621821 	addu	v1,v1,v0
  4058d8:	00641823 	subu	v1,v1,a0
  4058dc:	00651821 	addu	v1,v1,a1
  4058e0:	afa30000 	sw	v1,0(sp)
  4058e4:	8fa20000 	lw	v0,0(sp)
  4058e8:	8fa30004 	lw	v1,4(sp)
  4058ec:	8fa40008 	lw	a0,8(sp)
  4058f0:	00431021 	addu	v0,v0,v1
  4058f4:	00441023 	subu	v0,v0,a0
  4058f8:	00451021 	addu	v0,v0,a1
  4058fc:	afa20004 	sw	v0,4(sp)
  405900:	8fa30000 	lw	v1,0(sp)
  405904:	8fa20004 	lw	v0,4(sp)
  405908:	8fa40008 	lw	a0,8(sp)
  40590c:	00621821 	addu	v1,v1,v0
  405910:	00641823 	subu	v1,v1,a0
  405914:	00651821 	addu	v1,v1,a1
  405918:	afa30008 	sw	v1,8(sp)
  40591c:	8fa20000 	lw	v0,0(sp)
  405920:	8fa30004 	lw	v1,4(sp)
  405924:	8fa40008 	lw	a0,8(sp)
  405928:	00431021 	addu	v0,v0,v1
  40592c:	00441023 	subu	v0,v0,a0
  405930:	00451021 	addu	v0,v0,a1
  405934:	afa20000 	sw	v0,0(sp)
  405938:	8fa30000 	lw	v1,0(sp)
  40593c:	8fa20004 	lw	v0,4(sp)
  405940:	8fa40008 	lw	a0,8(sp)
  405944:	00621821 	addu	v1,v1,v0
  405948:	00641823 	subu	v1,v1,a0
  40594c:	00651821 	addu	v1,v1,a1
  405950:	afa30004 	sw	v1,4(sp)
  405954:	8fa20000 	lw	v0,0(sp)
  405958:	8fa30004 	lw	v1,4(sp)
  40595c:	8fa40008 	lw	a0,8(sp)
  405960:	00431021 	addu	v0,v0,v1
  405964:	00441023 	subu	v0,v0,a0
  405968:	00451021 	addu	v0,v0,a1
  40596c:	afa20008 	sw	v0,8(sp)
  405970:	8fa30000 	lw	v1,0(sp)
  405974:	8fa20004 	lw	v0,4(sp)
  405978:	8fa40008 	lw	a0,8(sp)
  40597c:	00621821 	addu	v1,v1,v0
  405980:	00641823 	subu	v1,v1,a0
  405984:	00651821 	addu	v1,v1,a1
  405988:	afa30000 	sw	v1,0(sp)
  40598c:	8fa20000 	lw	v0,0(sp)
  405990:	8fa30004 	lw	v1,4(sp)
  405994:	8fa40008 	lw	a0,8(sp)
  405998:	00431021 	addu	v0,v0,v1
  40599c:	00441023 	subu	v0,v0,a0
  4059a0:	00451021 	addu	v0,v0,a1
  4059a4:	afa20004 	sw	v0,4(sp)
  4059a8:	8fa30000 	lw	v1,0(sp)
  4059ac:	8fa20004 	lw	v0,4(sp)
  4059b0:	8fa40008 	lw	a0,8(sp)
  4059b4:	00621821 	addu	v1,v1,v0
  4059b8:	00641823 	subu	v1,v1,a0
  4059bc:	00651821 	addu	v1,v1,a1
  4059c0:	afa30008 	sw	v1,8(sp)
  4059c4:	8fa20000 	lw	v0,0(sp)
  4059c8:	8fa30004 	lw	v1,4(sp)
  4059cc:	8fa40008 	lw	a0,8(sp)
  4059d0:	00431021 	addu	v0,v0,v1
  4059d4:	00441023 	subu	v0,v0,a0
  4059d8:	00451021 	addu	v0,v0,a1
  4059dc:	afa20000 	sw	v0,0(sp)
  4059e0:	8fa30000 	lw	v1,0(sp)
  4059e4:	8fa20004 	lw	v0,4(sp)
  4059e8:	8fa40008 	lw	a0,8(sp)
  4059ec:	00621821 	addu	v1,v1,v0
  4059f0:	00641823 	subu	v1,v1,a0
  4059f4:	00651821 	addu	v1,v1,a1
  4059f8:	afa30004 	sw	v1,4(sp)
  4059fc:	8fa20000 	lw	v0,0(sp)
  405a00:	8fa30004 	lw	v1,4(sp)
  405a04:	8fa40008 	lw	a0,8(sp)
  405a08:	00431021 	addu	v0,v0,v1
  405a0c:	00441023 	subu	v0,v0,a0
  405a10:	00451021 	addu	v0,v0,a1
  405a14:	afa20008 	sw	v0,8(sp)
  405a18:	8fa30000 	lw	v1,0(sp)
  405a1c:	8fa20004 	lw	v0,4(sp)
  405a20:	8fa40008 	lw	a0,8(sp)
  405a24:	00621821 	addu	v1,v1,v0
  405a28:	00641823 	subu	v1,v1,a0
  405a2c:	00651821 	addu	v1,v1,a1
  405a30:	24a50001 	addiu	a1,a1,1
  405a34:	afa30000 	sw	v1,0(sp)
  405a38:	14a6ff8e 	bne	a1,a2,405874 <func_14+0x24>
  405a3c:	00000000 	nop
  405a40:	00002821 	move	a1,zero
  405a44:	24060002 	li	a2,2
  405a48:	8fa20000 	lw	v0,0(sp)
  405a4c:	8fa30004 	lw	v1,4(sp)
  405a50:	8fa40008 	lw	a0,8(sp)
  405a54:	00431021 	addu	v0,v0,v1
  405a58:	00441023 	subu	v0,v0,a0
  405a5c:	00451021 	addu	v0,v0,a1
  405a60:	afa20004 	sw	v0,4(sp)
  405a64:	8fa30000 	lw	v1,0(sp)
  405a68:	8fa20004 	lw	v0,4(sp)
  405a6c:	8fa40008 	lw	a0,8(sp)
  405a70:	00621821 	addu	v1,v1,v0
  405a74:	00641823 	subu	v1,v1,a0
  405a78:	00651821 	addu	v1,v1,a1
  405a7c:	afa30000 	sw	v1,0(sp)
  405a80:	8fa20000 	lw	v0,0(sp)
  405a84:	8fa30004 	lw	v1,4(sp)
  405a88:	8fa40008 	lw	a0,8(sp)
  405a8c:	00431021 	addu	v0,v0,v1
  405a90:	00441023 	subu	v0,v0,a0
  405a94:	00451021 	addu	v0,v0,a1
  405a98:	afa20008 	sw	v0,8(sp)
  405a9c:	8fa30000 	lw	v1,0(sp)
  405aa0:	8fa20004 	lw	v0,4(sp)
  405aa4:	8fa40008 	lw	a0,8(sp)
  405aa8:	00621821 	addu	v1,v1,v0
  405aac:	00641823 	subu	v1,v1,a0
  405ab0:	00651821 	addu	v1,v1,a1
  405ab4:	afa30004 	sw	v1,4(sp)
  405ab8:	8fa20000 	lw	v0,0(sp)
  405abc:	8fa30004 	lw	v1,4(sp)
  405ac0:	8fa40008 	lw	a0,8(sp)
  405ac4:	00431021 	addu	v0,v0,v1
  405ac8:	00441023 	subu	v0,v0,a0
  405acc:	00451021 	addu	v0,v0,a1
  405ad0:	afa20004 	sw	v0,4(sp)
  405ad4:	8fa30000 	lw	v1,0(sp)
  405ad8:	8fa20004 	lw	v0,4(sp)
  405adc:	8fa40008 	lw	a0,8(sp)
  405ae0:	00621821 	addu	v1,v1,v0
  405ae4:	00641823 	subu	v1,v1,a0
  405ae8:	00651821 	addu	v1,v1,a1
  405aec:	afa30000 	sw	v1,0(sp)
  405af0:	8fa20000 	lw	v0,0(sp)
  405af4:	8fa30004 	lw	v1,4(sp)
  405af8:	8fa40008 	lw	a0,8(sp)
  405afc:	00431021 	addu	v0,v0,v1
  405b00:	00441023 	subu	v0,v0,a0
  405b04:	00451021 	addu	v0,v0,a1
  405b08:	afa20008 	sw	v0,8(sp)
  405b0c:	8fa30000 	lw	v1,0(sp)
  405b10:	8fa20004 	lw	v0,4(sp)
  405b14:	8fa40008 	lw	a0,8(sp)
  405b18:	00621821 	addu	v1,v1,v0
  405b1c:	00641823 	subu	v1,v1,a0
  405b20:	00651821 	addu	v1,v1,a1
  405b24:	afa30004 	sw	v1,4(sp)
  405b28:	8fa20000 	lw	v0,0(sp)
  405b2c:	8fa30004 	lw	v1,4(sp)
  405b30:	8fa40008 	lw	a0,8(sp)
  405b34:	00431021 	addu	v0,v0,v1
  405b38:	00441023 	subu	v0,v0,a0
  405b3c:	00451021 	addu	v0,v0,a1
  405b40:	afa20000 	sw	v0,0(sp)
  405b44:	8fa30000 	lw	v1,0(sp)
  405b48:	8fa20004 	lw	v0,4(sp)
  405b4c:	8fa40008 	lw	a0,8(sp)
  405b50:	00621821 	addu	v1,v1,v0
  405b54:	00641823 	subu	v1,v1,a0
  405b58:	00651821 	addu	v1,v1,a1
  405b5c:	afa30008 	sw	v1,8(sp)
  405b60:	8fa20000 	lw	v0,0(sp)
  405b64:	8fa30004 	lw	v1,4(sp)
  405b68:	8fa40008 	lw	a0,8(sp)
  405b6c:	00431021 	addu	v0,v0,v1
  405b70:	00441023 	subu	v0,v0,a0
  405b74:	00451021 	addu	v0,v0,a1
  405b78:	afa20004 	sw	v0,4(sp)
  405b7c:	8fa30000 	lw	v1,0(sp)
  405b80:	8fa20004 	lw	v0,4(sp)
  405b84:	8fa40008 	lw	a0,8(sp)
  405b88:	00621821 	addu	v1,v1,v0
  405b8c:	00641823 	subu	v1,v1,a0
  405b90:	00651821 	addu	v1,v1,a1
  405b94:	afa30000 	sw	v1,0(sp)
  405b98:	8fa20000 	lw	v0,0(sp)
  405b9c:	8fa30004 	lw	v1,4(sp)
  405ba0:	8fa40008 	lw	a0,8(sp)
  405ba4:	00431021 	addu	v0,v0,v1
  405ba8:	00441023 	subu	v0,v0,a0
  405bac:	00451021 	addu	v0,v0,a1
  405bb0:	24a50001 	addiu	a1,a1,1
  405bb4:	afa20008 	sw	v0,8(sp)
  405bb8:	14a6ffa3 	bne	a1,a2,405a48 <func_14+0x1f8>
  405bbc:	00000000 	nop
  405bc0:	00002821 	move	a1,zero
  405bc4:	24060002 	li	a2,2
  405bc8:	8fa20000 	lw	v0,0(sp)
  405bcc:	8fa30004 	lw	v1,4(sp)
  405bd0:	8fa40008 	lw	a0,8(sp)
  405bd4:	00431021 	addu	v0,v0,v1
  405bd8:	00441023 	subu	v0,v0,a0
  405bdc:	00451021 	addu	v0,v0,a1
  405be0:	afa20008 	sw	v0,8(sp)
  405be4:	8fa30000 	lw	v1,0(sp)
  405be8:	8fa20004 	lw	v0,4(sp)
  405bec:	8fa40008 	lw	a0,8(sp)
  405bf0:	00621821 	addu	v1,v1,v0
  405bf4:	00641823 	subu	v1,v1,a0
  405bf8:	00651821 	addu	v1,v1,a1
  405bfc:	afa30004 	sw	v1,4(sp)
  405c00:	8fa20000 	lw	v0,0(sp)
  405c04:	8fa30004 	lw	v1,4(sp)
  405c08:	8fa40008 	lw	a0,8(sp)
  405c0c:	00431021 	addu	v0,v0,v1
  405c10:	00441023 	subu	v0,v0,a0
  405c14:	00451021 	addu	v0,v0,a1
  405c18:	afa20000 	sw	v0,0(sp)
  405c1c:	8fa30000 	lw	v1,0(sp)
  405c20:	8fa20004 	lw	v0,4(sp)
  405c24:	8fa40008 	lw	a0,8(sp)
  405c28:	00621821 	addu	v1,v1,v0
  405c2c:	00641823 	subu	v1,v1,a0
  405c30:	00651821 	addu	v1,v1,a1
  405c34:	afa30008 	sw	v1,8(sp)
  405c38:	8fa20000 	lw	v0,0(sp)
  405c3c:	8fa30004 	lw	v1,4(sp)
  405c40:	8fa40008 	lw	a0,8(sp)
  405c44:	00431021 	addu	v0,v0,v1
  405c48:	00441023 	subu	v0,v0,a0
  405c4c:	00451021 	addu	v0,v0,a1
  405c50:	afa20004 	sw	v0,4(sp)
  405c54:	8fa30000 	lw	v1,0(sp)
  405c58:	8fa20004 	lw	v0,4(sp)
  405c5c:	8fa40008 	lw	a0,8(sp)
  405c60:	00621821 	addu	v1,v1,v0
  405c64:	00641823 	subu	v1,v1,a0
  405c68:	00651821 	addu	v1,v1,a1
  405c6c:	afa30000 	sw	v1,0(sp)
  405c70:	8fa20000 	lw	v0,0(sp)
  405c74:	8fa30004 	lw	v1,4(sp)
  405c78:	8fa40008 	lw	a0,8(sp)
  405c7c:	00431021 	addu	v0,v0,v1
  405c80:	00441023 	subu	v0,v0,a0
  405c84:	00451021 	addu	v0,v0,a1
  405c88:	24a50001 	addiu	a1,a1,1
  405c8c:	afa20008 	sw	v0,8(sp)
  405c90:	14a6ffcd 	bne	a1,a2,405bc8 <func_14+0x378>
  405c94:	00000000 	nop
  405c98:	00002821 	move	a1,zero
  405c9c:	24060002 	li	a2,2
  405ca0:	8fa20000 	lw	v0,0(sp)
  405ca4:	8fa30004 	lw	v1,4(sp)
  405ca8:	8fa40008 	lw	a0,8(sp)
  405cac:	00431021 	addu	v0,v0,v1
  405cb0:	00441023 	subu	v0,v0,a0
  405cb4:	00451021 	addu	v0,v0,a1
  405cb8:	afa20000 	sw	v0,0(sp)
  405cbc:	8fa30000 	lw	v1,0(sp)
  405cc0:	8fa20004 	lw	v0,4(sp)
  405cc4:	8fa40008 	lw	a0,8(sp)
  405cc8:	00621821 	addu	v1,v1,v0
  405ccc:	00641823 	subu	v1,v1,a0
  405cd0:	00651821 	addu	v1,v1,a1
  405cd4:	afa30008 	sw	v1,8(sp)
  405cd8:	8fa20000 	lw	v0,0(sp)
  405cdc:	8fa30004 	lw	v1,4(sp)
  405ce0:	8fa40008 	lw	a0,8(sp)
  405ce4:	00431021 	addu	v0,v0,v1
  405ce8:	00441023 	subu	v0,v0,a0
  405cec:	00451021 	addu	v0,v0,a1
  405cf0:	afa20004 	sw	v0,4(sp)
  405cf4:	8fa30000 	lw	v1,0(sp)
  405cf8:	8fa20004 	lw	v0,4(sp)
  405cfc:	8fa40008 	lw	a0,8(sp)
  405d00:	00621821 	addu	v1,v1,v0
  405d04:	00641823 	subu	v1,v1,a0
  405d08:	00651821 	addu	v1,v1,a1
  405d0c:	afa30000 	sw	v1,0(sp)
  405d10:	8fa20000 	lw	v0,0(sp)
  405d14:	8fa30004 	lw	v1,4(sp)
  405d18:	8fa40008 	lw	a0,8(sp)
  405d1c:	00431021 	addu	v0,v0,v1
  405d20:	00441023 	subu	v0,v0,a0
  405d24:	00451021 	addu	v0,v0,a1
  405d28:	afa20008 	sw	v0,8(sp)
  405d2c:	8fa30000 	lw	v1,0(sp)
  405d30:	8fa20004 	lw	v0,4(sp)
  405d34:	8fa40008 	lw	a0,8(sp)
  405d38:	00621821 	addu	v1,v1,v0
  405d3c:	00641823 	subu	v1,v1,a0
  405d40:	00651821 	addu	v1,v1,a1
  405d44:	afa30004 	sw	v1,4(sp)
  405d48:	8fa20000 	lw	v0,0(sp)
  405d4c:	8fa30004 	lw	v1,4(sp)
  405d50:	8fa40008 	lw	a0,8(sp)
  405d54:	00431021 	addu	v0,v0,v1
  405d58:	00441023 	subu	v0,v0,a0
  405d5c:	00451021 	addu	v0,v0,a1
  405d60:	afa20000 	sw	v0,0(sp)
  405d64:	8fa30000 	lw	v1,0(sp)
  405d68:	8fa20004 	lw	v0,4(sp)
  405d6c:	8fa40008 	lw	a0,8(sp)
  405d70:	00621821 	addu	v1,v1,v0
  405d74:	00641823 	subu	v1,v1,a0
  405d78:	00651821 	addu	v1,v1,a1
  405d7c:	afa30004 	sw	v1,4(sp)
  405d80:	8fa20000 	lw	v0,0(sp)
  405d84:	8fa30004 	lw	v1,4(sp)
  405d88:	8fa40008 	lw	a0,8(sp)
  405d8c:	00431021 	addu	v0,v0,v1
  405d90:	00441023 	subu	v0,v0,a0
  405d94:	00451021 	addu	v0,v0,a1
  405d98:	afa20000 	sw	v0,0(sp)
  405d9c:	8fa30000 	lw	v1,0(sp)
  405da0:	8fa20004 	lw	v0,4(sp)
  405da4:	8fa40008 	lw	a0,8(sp)
  405da8:	00621821 	addu	v1,v1,v0
  405dac:	00641823 	subu	v1,v1,a0
  405db0:	00651821 	addu	v1,v1,a1
  405db4:	afa30008 	sw	v1,8(sp)
  405db8:	8fa20000 	lw	v0,0(sp)
  405dbc:	8fa30004 	lw	v1,4(sp)
  405dc0:	8fa40008 	lw	a0,8(sp)
  405dc4:	00431021 	addu	v0,v0,v1
  405dc8:	00441023 	subu	v0,v0,a0
  405dcc:	00451021 	addu	v0,v0,a1
  405dd0:	afa20004 	sw	v0,4(sp)
  405dd4:	8fa30000 	lw	v1,0(sp)
  405dd8:	8fa20004 	lw	v0,4(sp)
  405ddc:	8fa40008 	lw	a0,8(sp)
  405de0:	00621821 	addu	v1,v1,v0
  405de4:	00641823 	subu	v1,v1,a0
  405de8:	00651821 	addu	v1,v1,a1
  405dec:	afa30000 	sw	v1,0(sp)
  405df0:	8fa20000 	lw	v0,0(sp)
  405df4:	8fa30004 	lw	v1,4(sp)
  405df8:	8fa40008 	lw	a0,8(sp)
  405dfc:	00431021 	addu	v0,v0,v1
  405e00:	00441023 	subu	v0,v0,a0
  405e04:	00451021 	addu	v0,v0,a1
  405e08:	afa20008 	sw	v0,8(sp)
  405e0c:	8fa30000 	lw	v1,0(sp)
  405e10:	8fa20004 	lw	v0,4(sp)
  405e14:	8fa40008 	lw	a0,8(sp)
  405e18:	00621821 	addu	v1,v1,v0
  405e1c:	00641823 	subu	v1,v1,a0
  405e20:	00651821 	addu	v1,v1,a1
  405e24:	afa30004 	sw	v1,4(sp)
  405e28:	8fa20000 	lw	v0,0(sp)
  405e2c:	8fa30004 	lw	v1,4(sp)
  405e30:	8fa40008 	lw	a0,8(sp)
  405e34:	00431021 	addu	v0,v0,v1
  405e38:	00441023 	subu	v0,v0,a0
  405e3c:	00451021 	addu	v0,v0,a1
  405e40:	afa20000 	sw	v0,0(sp)
  405e44:	8fa30000 	lw	v1,0(sp)
  405e48:	8fa20004 	lw	v0,4(sp)
  405e4c:	8fa40008 	lw	a0,8(sp)
  405e50:	00621821 	addu	v1,v1,v0
  405e54:	00641823 	subu	v1,v1,a0
  405e58:	00651821 	addu	v1,v1,a1
  405e5c:	24a50001 	addiu	a1,a1,1
  405e60:	afa30004 	sw	v1,4(sp)
  405e64:	14a6ff8e 	bne	a1,a2,405ca0 <func_14+0x450>
  405e68:	00000000 	nop
  405e6c:	8fa20000 	lw	v0,0(sp)
  405e70:	8fa30004 	lw	v1,4(sp)
  405e74:	8fa40008 	lw	a0,8(sp)
  405e78:	00431021 	addu	v0,v0,v1
  405e7c:	00441021 	addu	v0,v0,a0
  405e80:	03e00008 	jr	ra
  405e84:	27bd0010 	addiu	sp,sp,16

00405e88 <func_15>:
  405e88:	27bdfff0 	addiu	sp,sp,-16
  405e8c:	2402000a 	li	v0,10
  405e90:	afa20000 	sw	v0,0(sp)
  405e94:	2403000b 	li	v1,11
  405e98:	2402000c 	li	v0,12
  405e9c:	afa30004 	sw	v1,4(sp)
  405ea0:	00002821 	move	a1,zero
  405ea4:	afa20008 	sw	v0,8(sp)
  405ea8:	24060002 	li	a2,2
  405eac:	8fa20000 	lw	v0,0(sp)
  405eb0:	8fa30004 	lw	v1,4(sp)
  405eb4:	8fa40008 	lw	a0,8(sp)
  405eb8:	00431021 	addu	v0,v0,v1
  405ebc:	00441023 	subu	v0,v0,a0
  405ec0:	00451021 	addu	v0,v0,a1
  405ec4:	afa20000 	sw	v0,0(sp)
  405ec8:	8fa30000 	lw	v1,0(sp)
  405ecc:	8fa20004 	lw	v0,4(sp)
  405ed0:	8fa40008 	lw	a0,8(sp)
  405ed4:	00621821 	addu	v1,v1,v0
  405ed8:	00641823 	subu	v1,v1,a0
  405edc:	00651821 	addu	v1,v1,a1
  405ee0:	afa30004 	sw	v1,4(sp)
  405ee4:	8fa20000 	lw	v0,0(sp)
  405ee8:	8fa30004 	lw	v1,4(sp)
  405eec:	8fa40008 	lw	a0,8(sp)
  405ef0:	00431021 	addu	v0,v0,v1
  405ef4:	00441023 	subu	v0,v0,a0
  405ef8:	00451021 	addu	v0,v0,a1
  405efc:	afa20008 	sw	v0,8(sp)
  405f00:	8fa30000 	lw	v1,0(sp)
  405f04:	8fa20004 	lw	v0,4(sp)
  405f08:	8fa40008 	lw	a0,8(sp)
  405f0c:	00621821 	addu	v1,v1,v0
  405f10:	00641823 	subu	v1,v1,a0
  405f14:	00651821 	addu	v1,v1,a1
  405f18:	afa30000 	sw	v1,0(sp)
  405f1c:	8fa20000 	lw	v0,0(sp)
  405f20:	8fa30004 	lw	v1,4(sp)
  405f24:	8fa40008 	lw	a0,8(sp)
  405f28:	00431021 	addu	v0,v0,v1
  405f2c:	00441023 	subu	v0,v0,a0
  405f30:	00451021 	addu	v0,v0,a1
  405f34:	afa20004 	sw	v0,4(sp)
  405f38:	8fa30000 	lw	v1,0(sp)
  405f3c:	8fa20004 	lw	v0,4(sp)
  405f40:	8fa40008 	lw	a0,8(sp)
  405f44:	00621821 	addu	v1,v1,v0
  405f48:	00641823 	subu	v1,v1,a0
  405f4c:	00651821 	addu	v1,v1,a1
  405f50:	afa30008 	sw	v1,8(sp)
  405f54:	8fa20000 	lw	v0,0(sp)
  405f58:	8fa30004 	lw	v1,4(sp)
  405f5c:	8fa40008 	lw	a0,8(sp)
  405f60:	00431021 	addu	v0,v0,v1
  405f64:	00441023 	subu	v0,v0,a0
  405f68:	00451021 	addu	v0,v0,a1
  405f6c:	afa20000 	sw	v0,0(sp)
  405f70:	8fa30000 	lw	v1,0(sp)
  405f74:	8fa20004 	lw	v0,4(sp)
  405f78:	8fa40008 	lw	a0,8(sp)
  405f7c:	00621821 	addu	v1,v1,v0
  405f80:	00641823 	subu	v1,v1,a0
  405f84:	00651821 	addu	v1,v1,a1
  405f88:	afa30004 	sw	v1,4(sp)
  405f8c:	8fa20000 	lw	v0,0(sp)
  405f90:	8fa30004 	lw	v1,4(sp)
  405f94:	8fa40008 	lw	a0,8(sp)
  405f98:	00431021 	addu	v0,v0,v1
  405f9c:	00441023 	subu	v0,v0,a0
  405fa0:	00451021 	addu	v0,v0,a1
  405fa4:	afa20008 	sw	v0,8(sp)
  405fa8:	8fa30000 	lw	v1,0(sp)
  405fac:	8fa20004 	lw	v0,4(sp)
  405fb0:	8fa40008 	lw	a0,8(sp)
  405fb4:	00621821 	addu	v1,v1,v0
  405fb8:	00641823 	subu	v1,v1,a0
  405fbc:	00651821 	addu	v1,v1,a1
  405fc0:	afa30000 	sw	v1,0(sp)
  405fc4:	8fa20000 	lw	v0,0(sp)
  405fc8:	8fa30004 	lw	v1,4(sp)
  405fcc:	8fa40008 	lw	a0,8(sp)
  405fd0:	00431021 	addu	v0,v0,v1
  405fd4:	00441023 	subu	v0,v0,a0
  405fd8:	00451021 	addu	v0,v0,a1
  405fdc:	afa20004 	sw	v0,4(sp)
  405fe0:	8fa30000 	lw	v1,0(sp)
  405fe4:	8fa20004 	lw	v0,4(sp)
  405fe8:	8fa40008 	lw	a0,8(sp)
  405fec:	00621821 	addu	v1,v1,v0
  405ff0:	00641823 	subu	v1,v1,a0
  405ff4:	00651821 	addu	v1,v1,a1
  405ff8:	afa30008 	sw	v1,8(sp)
  405ffc:	8fa20000 	lw	v0,0(sp)
  406000:	8fa30004 	lw	v1,4(sp)
  406004:	8fa40008 	lw	a0,8(sp)
  406008:	00431021 	addu	v0,v0,v1
  40600c:	00441023 	subu	v0,v0,a0
  406010:	00451021 	addu	v0,v0,a1
  406014:	afa20000 	sw	v0,0(sp)
  406018:	8fa30000 	lw	v1,0(sp)
  40601c:	8fa20004 	lw	v0,4(sp)
  406020:	8fa40008 	lw	a0,8(sp)
  406024:	00621821 	addu	v1,v1,v0
  406028:	00641823 	subu	v1,v1,a0
  40602c:	00651821 	addu	v1,v1,a1
  406030:	afa30004 	sw	v1,4(sp)
  406034:	8fa20000 	lw	v0,0(sp)
  406038:	8fa30004 	lw	v1,4(sp)
  40603c:	8fa40008 	lw	a0,8(sp)
  406040:	00431021 	addu	v0,v0,v1
  406044:	00441023 	subu	v0,v0,a0
  406048:	00451021 	addu	v0,v0,a1
  40604c:	afa20008 	sw	v0,8(sp)
  406050:	8fa30000 	lw	v1,0(sp)
  406054:	8fa20004 	lw	v0,4(sp)
  406058:	8fa40008 	lw	a0,8(sp)
  40605c:	00621821 	addu	v1,v1,v0
  406060:	00641823 	subu	v1,v1,a0
  406064:	00651821 	addu	v1,v1,a1
  406068:	24a50001 	addiu	a1,a1,1
  40606c:	afa30000 	sw	v1,0(sp)
  406070:	14a6ff8e 	bne	a1,a2,405eac <func_15+0x24>
  406074:	00000000 	nop
  406078:	00002821 	move	a1,zero
  40607c:	24060002 	li	a2,2
  406080:	8fa20000 	lw	v0,0(sp)
  406084:	8fa30004 	lw	v1,4(sp)
  406088:	8fa40008 	lw	a0,8(sp)
  40608c:	00431021 	addu	v0,v0,v1
  406090:	00441023 	subu	v0,v0,a0
  406094:	00451021 	addu	v0,v0,a1
  406098:	afa20004 	sw	v0,4(sp)
  40609c:	8fa30000 	lw	v1,0(sp)
  4060a0:	8fa20004 	lw	v0,4(sp)
  4060a4:	8fa40008 	lw	a0,8(sp)
  4060a8:	00621821 	addu	v1,v1,v0
  4060ac:	00641823 	subu	v1,v1,a0
  4060b0:	00651821 	addu	v1,v1,a1
  4060b4:	afa30000 	sw	v1,0(sp)
  4060b8:	8fa20000 	lw	v0,0(sp)
  4060bc:	8fa30004 	lw	v1,4(sp)
  4060c0:	8fa40008 	lw	a0,8(sp)
  4060c4:	00431021 	addu	v0,v0,v1
  4060c8:	00441023 	subu	v0,v0,a0
  4060cc:	00451021 	addu	v0,v0,a1
  4060d0:	afa20008 	sw	v0,8(sp)
  4060d4:	8fa30000 	lw	v1,0(sp)
  4060d8:	8fa20004 	lw	v0,4(sp)
  4060dc:	8fa40008 	lw	a0,8(sp)
  4060e0:	00621821 	addu	v1,v1,v0
  4060e4:	00641823 	subu	v1,v1,a0
  4060e8:	00651821 	addu	v1,v1,a1
  4060ec:	afa30004 	sw	v1,4(sp)
  4060f0:	8fa20000 	lw	v0,0(sp)
  4060f4:	8fa30004 	lw	v1,4(sp)
  4060f8:	8fa40008 	lw	a0,8(sp)
  4060fc:	00431021 	addu	v0,v0,v1
  406100:	00441023 	subu	v0,v0,a0
  406104:	00451021 	addu	v0,v0,a1
  406108:	afa20004 	sw	v0,4(sp)
  40610c:	8fa30000 	lw	v1,0(sp)
  406110:	8fa20004 	lw	v0,4(sp)
  406114:	8fa40008 	lw	a0,8(sp)
  406118:	00621821 	addu	v1,v1,v0
  40611c:	00641823 	subu	v1,v1,a0
  406120:	00651821 	addu	v1,v1,a1
  406124:	afa30000 	sw	v1,0(sp)
  406128:	8fa20000 	lw	v0,0(sp)
  40612c:	8fa30004 	lw	v1,4(sp)
  406130:	8fa40008 	lw	a0,8(sp)
  406134:	00431021 	addu	v0,v0,v1
  406138:	00441023 	subu	v0,v0,a0
  40613c:	00451021 	addu	v0,v0,a1
  406140:	afa20008 	sw	v0,8(sp)
  406144:	8fa30000 	lw	v1,0(sp)
  406148:	8fa20004 	lw	v0,4(sp)
  40614c:	8fa40008 	lw	a0,8(sp)
  406150:	00621821 	addu	v1,v1,v0
  406154:	00641823 	subu	v1,v1,a0
  406158:	00651821 	addu	v1,v1,a1
  40615c:	afa30004 	sw	v1,4(sp)
  406160:	8fa20000 	lw	v0,0(sp)
  406164:	8fa30004 	lw	v1,4(sp)
  406168:	8fa40008 	lw	a0,8(sp)
  40616c:	00431021 	addu	v0,v0,v1
  406170:	00441023 	subu	v0,v0,a0
  406174:	00451021 	addu	v0,v0,a1
  406178:	afa20000 	sw	v0,0(sp)
  40617c:	8fa30000 	lw	v1,0(sp)
  406180:	8fa20004 	lw	v0,4(sp)
  406184:	8fa40008 	lw	a0,8(sp)
  406188:	00621821 	addu	v1,v1,v0
  40618c:	00641823 	subu	v1,v1,a0
  406190:	00651821 	addu	v1,v1,a1
  406194:	afa30008 	sw	v1,8(sp)
  406198:	8fa20000 	lw	v0,0(sp)
  40619c:	8fa30004 	lw	v1,4(sp)
  4061a0:	8fa40008 	lw	a0,8(sp)
  4061a4:	00431021 	addu	v0,v0,v1
  4061a8:	00441023 	subu	v0,v0,a0
  4061ac:	00451021 	addu	v0,v0,a1
  4061b0:	afa20004 	sw	v0,4(sp)
  4061b4:	8fa30000 	lw	v1,0(sp)
  4061b8:	8fa20004 	lw	v0,4(sp)
  4061bc:	8fa40008 	lw	a0,8(sp)
  4061c0:	00621821 	addu	v1,v1,v0
  4061c4:	00641823 	subu	v1,v1,a0
  4061c8:	00651821 	addu	v1,v1,a1
  4061cc:	afa30000 	sw	v1,0(sp)
  4061d0:	8fa20000 	lw	v0,0(sp)
  4061d4:	8fa30004 	lw	v1,4(sp)
  4061d8:	8fa40008 	lw	a0,8(sp)
  4061dc:	00431021 	addu	v0,v0,v1
  4061e0:	00441023 	subu	v0,v0,a0
  4061e4:	00451021 	addu	v0,v0,a1
  4061e8:	24a50001 	addiu	a1,a1,1
  4061ec:	afa20008 	sw	v0,8(sp)
  4061f0:	14a6ffa3 	bne	a1,a2,406080 <func_15+0x1f8>
  4061f4:	00000000 	nop
  4061f8:	00002821 	move	a1,zero
  4061fc:	24060002 	li	a2,2
  406200:	8fa20000 	lw	v0,0(sp)
  406204:	8fa30004 	lw	v1,4(sp)
  406208:	8fa40008 	lw	a0,8(sp)
  40620c:	00431021 	addu	v0,v0,v1
  406210:	00441023 	subu	v0,v0,a0
  406214:	00451021 	addu	v0,v0,a1
  406218:	afa20008 	sw	v0,8(sp)
  40621c:	8fa30000 	lw	v1,0(sp)
  406220:	8fa20004 	lw	v0,4(sp)
  406224:	8fa40008 	lw	a0,8(sp)
  406228:	00621821 	addu	v1,v1,v0
  40622c:	00641823 	subu	v1,v1,a0
  406230:	00651821 	addu	v1,v1,a1
  406234:	afa30004 	sw	v1,4(sp)
  406238:	8fa20000 	lw	v0,0(sp)
  40623c:	8fa30004 	lw	v1,4(sp)
  406240:	8fa40008 	lw	a0,8(sp)
  406244:	00431021 	addu	v0,v0,v1
  406248:	00441023 	subu	v0,v0,a0
  40624c:	00451021 	addu	v0,v0,a1
  406250:	afa20000 	sw	v0,0(sp)
  406254:	8fa30000 	lw	v1,0(sp)
  406258:	8fa20004 	lw	v0,4(sp)
  40625c:	8fa40008 	lw	a0,8(sp)
  406260:	00621821 	addu	v1,v1,v0
  406264:	00641823 	subu	v1,v1,a0
  406268:	00651821 	addu	v1,v1,a1
  40626c:	afa30008 	sw	v1,8(sp)
  406270:	8fa20000 	lw	v0,0(sp)
  406274:	8fa30004 	lw	v1,4(sp)
  406278:	8fa40008 	lw	a0,8(sp)
  40627c:	00431021 	addu	v0,v0,v1
  406280:	00441023 	subu	v0,v0,a0
  406284:	00451021 	addu	v0,v0,a1
  406288:	afa20004 	sw	v0,4(sp)
  40628c:	8fa30000 	lw	v1,0(sp)
  406290:	8fa20004 	lw	v0,4(sp)
  406294:	8fa40008 	lw	a0,8(sp)
  406298:	00621821 	addu	v1,v1,v0
  40629c:	00641823 	subu	v1,v1,a0
  4062a0:	00651821 	addu	v1,v1,a1
  4062a4:	afa30000 	sw	v1,0(sp)
  4062a8:	8fa20000 	lw	v0,0(sp)
  4062ac:	8fa30004 	lw	v1,4(sp)
  4062b0:	8fa40008 	lw	a0,8(sp)
  4062b4:	00431021 	addu	v0,v0,v1
  4062b8:	00441023 	subu	v0,v0,a0
  4062bc:	00451021 	addu	v0,v0,a1
  4062c0:	24a50001 	addiu	a1,a1,1
  4062c4:	afa20008 	sw	v0,8(sp)
  4062c8:	14a6ffcd 	bne	a1,a2,406200 <func_15+0x378>
  4062cc:	00000000 	nop
  4062d0:	00002821 	move	a1,zero
  4062d4:	24060002 	li	a2,2
  4062d8:	8fa20000 	lw	v0,0(sp)
  4062dc:	8fa30004 	lw	v1,4(sp)
  4062e0:	8fa40008 	lw	a0,8(sp)
  4062e4:	00431021 	addu	v0,v0,v1
  4062e8:	00441023 	subu	v0,v0,a0
  4062ec:	00451021 	addu	v0,v0,a1
  4062f0:	afa20000 	sw	v0,0(sp)
  4062f4:	8fa30000 	lw	v1,0(sp)
  4062f8:	8fa20004 	lw	v0,4(sp)
  4062fc:	8fa40008 	lw	a0,8(sp)
  406300:	00621821 	addu	v1,v1,v0
  406304:	00641823 	subu	v1,v1,a0
  406308:	00651821 	addu	v1,v1,a1
  40630c:	afa30008 	sw	v1,8(sp)
  406310:	8fa20000 	lw	v0,0(sp)
  406314:	8fa30004 	lw	v1,4(sp)
  406318:	8fa40008 	lw	a0,8(sp)
  40631c:	00431021 	addu	v0,v0,v1
  406320:	00441023 	subu	v0,v0,a0
  406324:	00451021 	addu	v0,v0,a1
  406328:	afa20004 	sw	v0,4(sp)
  40632c:	8fa30000 	lw	v1,0(sp)
  406330:	8fa20004 	lw	v0,4(sp)
  406334:	8fa40008 	lw	a0,8(sp)
  406338:	00621821 	addu	v1,v1,v0
  40633c:	00641823 	subu	v1,v1,a0
  406340:	00651821 	addu	v1,v1,a1
  406344:	afa30000 	sw	v1,0(sp)
  406348:	8fa20000 	lw	v0,0(sp)
  40634c:	8fa30004 	lw	v1,4(sp)
  406350:	8fa40008 	lw	a0,8(sp)
  406354:	00431021 	addu	v0,v0,v1
  406358:	00441023 	subu	v0,v0,a0
  40635c:	00451021 	addu	v0,v0,a1
  406360:	afa20008 	sw	v0,8(sp)
  406364:	8fa30000 	lw	v1,0(sp)
  406368:	8fa20004 	lw	v0,4(sp)
  40636c:	8fa40008 	lw	a0,8(sp)
  406370:	00621821 	addu	v1,v1,v0
  406374:	00641823 	subu	v1,v1,a0
  406378:	00651821 	addu	v1,v1,a1
  40637c:	afa30004 	sw	v1,4(sp)
  406380:	8fa20000 	lw	v0,0(sp)
  406384:	8fa30004 	lw	v1,4(sp)
  406388:	8fa40008 	lw	a0,8(sp)
  40638c:	00431021 	addu	v0,v0,v1
  406390:	00441023 	subu	v0,v0,a0
  406394:	00451021 	addu	v0,v0,a1
  406398:	afa20000 	sw	v0,0(sp)
  40639c:	8fa30000 	lw	v1,0(sp)
  4063a0:	8fa20004 	lw	v0,4(sp)
  4063a4:	8fa40008 	lw	a0,8(sp)
  4063a8:	00621821 	addu	v1,v1,v0
  4063ac:	00641823 	subu	v1,v1,a0
  4063b0:	00651821 	addu	v1,v1,a1
  4063b4:	afa30004 	sw	v1,4(sp)
  4063b8:	8fa20000 	lw	v0,0(sp)
  4063bc:	8fa30004 	lw	v1,4(sp)
  4063c0:	8fa40008 	lw	a0,8(sp)
  4063c4:	00431021 	addu	v0,v0,v1
  4063c8:	00441023 	subu	v0,v0,a0
  4063cc:	00451021 	addu	v0,v0,a1
  4063d0:	afa20000 	sw	v0,0(sp)
  4063d4:	8fa30000 	lw	v1,0(sp)
  4063d8:	8fa20004 	lw	v0,4(sp)
  4063dc:	8fa40008 	lw	a0,8(sp)
  4063e0:	00621821 	addu	v1,v1,v0
  4063e4:	00641823 	subu	v1,v1,a0
  4063e8:	00651821 	addu	v1,v1,a1
  4063ec:	afa30008 	sw	v1,8(sp)
  4063f0:	8fa20000 	lw	v0,0(sp)
  4063f4:	8fa30004 	lw	v1,4(sp)
  4063f8:	8fa40008 	lw	a0,8(sp)
  4063fc:	00431021 	addu	v0,v0,v1
  406400:	00441023 	subu	v0,v0,a0
  406404:	00451021 	addu	v0,v0,a1
  406408:	afa20004 	sw	v0,4(sp)
  40640c:	8fa30000 	lw	v1,0(sp)
  406410:	8fa20004 	lw	v0,4(sp)
  406414:	8fa40008 	lw	a0,8(sp)
  406418:	00621821 	addu	v1,v1,v0
  40641c:	00641823 	subu	v1,v1,a0
  406420:	00651821 	addu	v1,v1,a1
  406424:	afa30000 	sw	v1,0(sp)
  406428:	8fa20000 	lw	v0,0(sp)
  40642c:	8fa30004 	lw	v1,4(sp)
  406430:	8fa40008 	lw	a0,8(sp)
  406434:	00431021 	addu	v0,v0,v1
  406438:	00441023 	subu	v0,v0,a0
  40643c:	00451021 	addu	v0,v0,a1
  406440:	afa20008 	sw	v0,8(sp)
  406444:	8fa30000 	lw	v1,0(sp)
  406448:	8fa20004 	lw	v0,4(sp)
  40644c:	8fa40008 	lw	a0,8(sp)
  406450:	00621821 	addu	v1,v1,v0
  406454:	00641823 	subu	v1,v1,a0
  406458:	00651821 	addu	v1,v1,a1
  40645c:	afa30004 	sw	v1,4(sp)
  406460:	8fa20000 	lw	v0,0(sp)
  406464:	8fa30004 	lw	v1,4(sp)
  406468:	8fa40008 	lw	a0,8(sp)
  40646c:	00431021 	addu	v0,v0,v1
  406470:	00441023 	subu	v0,v0,a0
  406474:	00451021 	addu	v0,v0,a1
  406478:	afa20000 	sw	v0,0(sp)
  40647c:	8fa30000 	lw	v1,0(sp)
  406480:	8fa20004 	lw	v0,4(sp)
  406484:	8fa40008 	lw	a0,8(sp)
  406488:	00621821 	addu	v1,v1,v0
  40648c:	00641823 	subu	v1,v1,a0
  406490:	00651821 	addu	v1,v1,a1
  406494:	24a50001 	addiu	a1,a1,1
  406498:	afa30004 	sw	v1,4(sp)
  40649c:	14a6ff8e 	bne	a1,a2,4062d8 <func_15+0x450>
  4064a0:	00000000 	nop
  4064a4:	8fa20000 	lw	v0,0(sp)
  4064a8:	8fa30004 	lw	v1,4(sp)
  4064ac:	8fa40008 	lw	a0,8(sp)
  4064b0:	00431021 	addu	v0,v0,v1
  4064b4:	00441021 	addu	v0,v0,a0
  4064b8:	03e00008 	jr	ra
  4064bc:	27bd0010 	addiu	sp,sp,16

004064c0 <func_16>:
  4064c0:	27bdfff0 	addiu	sp,sp,-16
  4064c4:	2402000a 	li	v0,10
  4064c8:	afa20000 	sw	v0,0(sp)
  4064cc:	2403000b 	li	v1,11
  4064d0:	2402000c 	li	v0,12
  4064d4:	afa30004 	sw	v1,4(sp)
  4064d8:	00002821 	move	a1,zero
  4064dc:	afa20008 	sw	v0,8(sp)
  4064e0:	24060002 	li	a2,2
  4064e4:	8fa20000 	lw	v0,0(sp)
  4064e8:	8fa30004 	lw	v1,4(sp)
  4064ec:	8fa40008 	lw	a0,8(sp)
  4064f0:	00431021 	addu	v0,v0,v1
  4064f4:	00441023 	subu	v0,v0,a0
  4064f8:	00451021 	addu	v0,v0,a1
  4064fc:	afa20000 	sw	v0,0(sp)
  406500:	8fa30000 	lw	v1,0(sp)
  406504:	8fa20004 	lw	v0,4(sp)
  406508:	8fa40008 	lw	a0,8(sp)
  40650c:	00621821 	addu	v1,v1,v0
  406510:	00641823 	subu	v1,v1,a0
  406514:	00651821 	addu	v1,v1,a1
  406518:	afa30004 	sw	v1,4(sp)
  40651c:	8fa20000 	lw	v0,0(sp)
  406520:	8fa30004 	lw	v1,4(sp)
  406524:	8fa40008 	lw	a0,8(sp)
  406528:	00431021 	addu	v0,v0,v1
  40652c:	00441023 	subu	v0,v0,a0
  406530:	00451021 	addu	v0,v0,a1
  406534:	afa20008 	sw	v0,8(sp)
  406538:	8fa30000 	lw	v1,0(sp)
  40653c:	8fa20004 	lw	v0,4(sp)
  406540:	8fa40008 	lw	a0,8(sp)
  406544:	00621821 	addu	v1,v1,v0
  406548:	00641823 	subu	v1,v1,a0
  40654c:	00651821 	addu	v1,v1,a1
  406550:	afa30000 	sw	v1,0(sp)
  406554:	8fa20000 	lw	v0,0(sp)
  406558:	8fa30004 	lw	v1,4(sp)
  40655c:	8fa40008 	lw	a0,8(sp)
  406560:	00431021 	addu	v0,v0,v1
  406564:	00441023 	subu	v0,v0,a0
  406568:	00451021 	addu	v0,v0,a1
  40656c:	afa20004 	sw	v0,4(sp)
  406570:	8fa30000 	lw	v1,0(sp)
  406574:	8fa20004 	lw	v0,4(sp)
  406578:	8fa40008 	lw	a0,8(sp)
  40657c:	00621821 	addu	v1,v1,v0
  406580:	00641823 	subu	v1,v1,a0
  406584:	00651821 	addu	v1,v1,a1
  406588:	afa30008 	sw	v1,8(sp)
  40658c:	8fa20000 	lw	v0,0(sp)
  406590:	8fa30004 	lw	v1,4(sp)
  406594:	8fa40008 	lw	a0,8(sp)
  406598:	00431021 	addu	v0,v0,v1
  40659c:	00441023 	subu	v0,v0,a0
  4065a0:	00451021 	addu	v0,v0,a1
  4065a4:	afa20000 	sw	v0,0(sp)
  4065a8:	8fa30000 	lw	v1,0(sp)
  4065ac:	8fa20004 	lw	v0,4(sp)
  4065b0:	8fa40008 	lw	a0,8(sp)
  4065b4:	00621821 	addu	v1,v1,v0
  4065b8:	00641823 	subu	v1,v1,a0
  4065bc:	00651821 	addu	v1,v1,a1
  4065c0:	afa30004 	sw	v1,4(sp)
  4065c4:	8fa20000 	lw	v0,0(sp)
  4065c8:	8fa30004 	lw	v1,4(sp)
  4065cc:	8fa40008 	lw	a0,8(sp)
  4065d0:	00431021 	addu	v0,v0,v1
  4065d4:	00441023 	subu	v0,v0,a0
  4065d8:	00451021 	addu	v0,v0,a1
  4065dc:	afa20008 	sw	v0,8(sp)
  4065e0:	8fa30000 	lw	v1,0(sp)
  4065e4:	8fa20004 	lw	v0,4(sp)
  4065e8:	8fa40008 	lw	a0,8(sp)
  4065ec:	00621821 	addu	v1,v1,v0
  4065f0:	00641823 	subu	v1,v1,a0
  4065f4:	00651821 	addu	v1,v1,a1
  4065f8:	afa30000 	sw	v1,0(sp)
  4065fc:	8fa20000 	lw	v0,0(sp)
  406600:	8fa30004 	lw	v1,4(sp)
  406604:	8fa40008 	lw	a0,8(sp)
  406608:	00431021 	addu	v0,v0,v1
  40660c:	00441023 	subu	v0,v0,a0
  406610:	00451021 	addu	v0,v0,a1
  406614:	afa20004 	sw	v0,4(sp)
  406618:	8fa30000 	lw	v1,0(sp)
  40661c:	8fa20004 	lw	v0,4(sp)
  406620:	8fa40008 	lw	a0,8(sp)
  406624:	00621821 	addu	v1,v1,v0
  406628:	00641823 	subu	v1,v1,a0
  40662c:	00651821 	addu	v1,v1,a1
  406630:	afa30008 	sw	v1,8(sp)
  406634:	8fa20000 	lw	v0,0(sp)
  406638:	8fa30004 	lw	v1,4(sp)
  40663c:	8fa40008 	lw	a0,8(sp)
  406640:	00431021 	addu	v0,v0,v1
  406644:	00441023 	subu	v0,v0,a0
  406648:	00451021 	addu	v0,v0,a1
  40664c:	afa20000 	sw	v0,0(sp)
  406650:	8fa30000 	lw	v1,0(sp)
  406654:	8fa20004 	lw	v0,4(sp)
  406658:	8fa40008 	lw	a0,8(sp)
  40665c:	00621821 	addu	v1,v1,v0
  406660:	00641823 	subu	v1,v1,a0
  406664:	00651821 	addu	v1,v1,a1
  406668:	afa30004 	sw	v1,4(sp)
  40666c:	8fa20000 	lw	v0,0(sp)
  406670:	8fa30004 	lw	v1,4(sp)
  406674:	8fa40008 	lw	a0,8(sp)
  406678:	00431021 	addu	v0,v0,v1
  40667c:	00441023 	subu	v0,v0,a0
  406680:	00451021 	addu	v0,v0,a1
  406684:	afa20008 	sw	v0,8(sp)
  406688:	8fa30000 	lw	v1,0(sp)
  40668c:	8fa20004 	lw	v0,4(sp)
  406690:	8fa40008 	lw	a0,8(sp)
  406694:	00621821 	addu	v1,v1,v0
  406698:	00641823 	subu	v1,v1,a0
  40669c:	00651821 	addu	v1,v1,a1
  4066a0:	24a50001 	addiu	a1,a1,1
  4066a4:	afa30000 	sw	v1,0(sp)
  4066a8:	14a6ff8e 	bne	a1,a2,4064e4 <func_16+0x24>
  4066ac:	00000000 	nop
  4066b0:	00002821 	move	a1,zero
  4066b4:	24060002 	li	a2,2
  4066b8:	8fa20000 	lw	v0,0(sp)
  4066bc:	8fa30004 	lw	v1,4(sp)
  4066c0:	8fa40008 	lw	a0,8(sp)
  4066c4:	00431021 	addu	v0,v0,v1
  4066c8:	00441023 	subu	v0,v0,a0
  4066cc:	00451021 	addu	v0,v0,a1
  4066d0:	afa20004 	sw	v0,4(sp)
  4066d4:	8fa30000 	lw	v1,0(sp)
  4066d8:	8fa20004 	lw	v0,4(sp)
  4066dc:	8fa40008 	lw	a0,8(sp)
  4066e0:	00621821 	addu	v1,v1,v0
  4066e4:	00641823 	subu	v1,v1,a0
  4066e8:	00651821 	addu	v1,v1,a1
  4066ec:	afa30000 	sw	v1,0(sp)
  4066f0:	8fa20000 	lw	v0,0(sp)
  4066f4:	8fa30004 	lw	v1,4(sp)
  4066f8:	8fa40008 	lw	a0,8(sp)
  4066fc:	00431021 	addu	v0,v0,v1
  406700:	00441023 	subu	v0,v0,a0
  406704:	00451021 	addu	v0,v0,a1
  406708:	afa20008 	sw	v0,8(sp)
  40670c:	8fa30000 	lw	v1,0(sp)
  406710:	8fa20004 	lw	v0,4(sp)
  406714:	8fa40008 	lw	a0,8(sp)
  406718:	00621821 	addu	v1,v1,v0
  40671c:	00641823 	subu	v1,v1,a0
  406720:	00651821 	addu	v1,v1,a1
  406724:	afa30004 	sw	v1,4(sp)
  406728:	8fa20000 	lw	v0,0(sp)
  40672c:	8fa30004 	lw	v1,4(sp)
  406730:	8fa40008 	lw	a0,8(sp)
  406734:	00431021 	addu	v0,v0,v1
  406738:	00441023 	subu	v0,v0,a0
  40673c:	00451021 	addu	v0,v0,a1
  406740:	afa20004 	sw	v0,4(sp)
  406744:	8fa30000 	lw	v1,0(sp)
  406748:	8fa20004 	lw	v0,4(sp)
  40674c:	8fa40008 	lw	a0,8(sp)
  406750:	00621821 	addu	v1,v1,v0
  406754:	00641823 	subu	v1,v1,a0
  406758:	00651821 	addu	v1,v1,a1
  40675c:	afa30000 	sw	v1,0(sp)
  406760:	8fa20000 	lw	v0,0(sp)
  406764:	8fa30004 	lw	v1,4(sp)
  406768:	8fa40008 	lw	a0,8(sp)
  40676c:	00431021 	addu	v0,v0,v1
  406770:	00441023 	subu	v0,v0,a0
  406774:	00451021 	addu	v0,v0,a1
  406778:	afa20008 	sw	v0,8(sp)
  40677c:	8fa30000 	lw	v1,0(sp)
  406780:	8fa20004 	lw	v0,4(sp)
  406784:	8fa40008 	lw	a0,8(sp)
  406788:	00621821 	addu	v1,v1,v0
  40678c:	00641823 	subu	v1,v1,a0
  406790:	00651821 	addu	v1,v1,a1
  406794:	afa30004 	sw	v1,4(sp)
  406798:	8fa20000 	lw	v0,0(sp)
  40679c:	8fa30004 	lw	v1,4(sp)
  4067a0:	8fa40008 	lw	a0,8(sp)
  4067a4:	00431021 	addu	v0,v0,v1
  4067a8:	00441023 	subu	v0,v0,a0
  4067ac:	00451021 	addu	v0,v0,a1
  4067b0:	afa20000 	sw	v0,0(sp)
  4067b4:	8fa30000 	lw	v1,0(sp)
  4067b8:	8fa20004 	lw	v0,4(sp)
  4067bc:	8fa40008 	lw	a0,8(sp)
  4067c0:	00621821 	addu	v1,v1,v0
  4067c4:	00641823 	subu	v1,v1,a0
  4067c8:	00651821 	addu	v1,v1,a1
  4067cc:	afa30008 	sw	v1,8(sp)
  4067d0:	8fa20000 	lw	v0,0(sp)
  4067d4:	8fa30004 	lw	v1,4(sp)
  4067d8:	8fa40008 	lw	a0,8(sp)
  4067dc:	00431021 	addu	v0,v0,v1
  4067e0:	00441023 	subu	v0,v0,a0
  4067e4:	00451021 	addu	v0,v0,a1
  4067e8:	afa20004 	sw	v0,4(sp)
  4067ec:	8fa30000 	lw	v1,0(sp)
  4067f0:	8fa20004 	lw	v0,4(sp)
  4067f4:	8fa40008 	lw	a0,8(sp)
  4067f8:	00621821 	addu	v1,v1,v0
  4067fc:	00641823 	subu	v1,v1,a0
  406800:	00651821 	addu	v1,v1,a1
  406804:	afa30000 	sw	v1,0(sp)
  406808:	8fa20000 	lw	v0,0(sp)
  40680c:	8fa30004 	lw	v1,4(sp)
  406810:	8fa40008 	lw	a0,8(sp)
  406814:	00431021 	addu	v0,v0,v1
  406818:	00441023 	subu	v0,v0,a0
  40681c:	00451021 	addu	v0,v0,a1
  406820:	24a50001 	addiu	a1,a1,1
  406824:	afa20008 	sw	v0,8(sp)
  406828:	14a6ffa3 	bne	a1,a2,4066b8 <func_16+0x1f8>
  40682c:	00000000 	nop
  406830:	00002821 	move	a1,zero
  406834:	24060002 	li	a2,2
  406838:	8fa20000 	lw	v0,0(sp)
  40683c:	8fa30004 	lw	v1,4(sp)
  406840:	8fa40008 	lw	a0,8(sp)
  406844:	00431021 	addu	v0,v0,v1
  406848:	00441023 	subu	v0,v0,a0
  40684c:	00451021 	addu	v0,v0,a1
  406850:	afa20008 	sw	v0,8(sp)
  406854:	8fa30000 	lw	v1,0(sp)
  406858:	8fa20004 	lw	v0,4(sp)
  40685c:	8fa40008 	lw	a0,8(sp)
  406860:	00621821 	addu	v1,v1,v0
  406864:	00641823 	subu	v1,v1,a0
  406868:	00651821 	addu	v1,v1,a1
  40686c:	afa30004 	sw	v1,4(sp)
  406870:	8fa20000 	lw	v0,0(sp)
  406874:	8fa30004 	lw	v1,4(sp)
  406878:	8fa40008 	lw	a0,8(sp)
  40687c:	00431021 	addu	v0,v0,v1
  406880:	00441023 	subu	v0,v0,a0
  406884:	00451021 	addu	v0,v0,a1
  406888:	afa20000 	sw	v0,0(sp)
  40688c:	8fa30000 	lw	v1,0(sp)
  406890:	8fa20004 	lw	v0,4(sp)
  406894:	8fa40008 	lw	a0,8(sp)
  406898:	00621821 	addu	v1,v1,v0
  40689c:	00641823 	subu	v1,v1,a0
  4068a0:	00651821 	addu	v1,v1,a1
  4068a4:	afa30008 	sw	v1,8(sp)
  4068a8:	8fa20000 	lw	v0,0(sp)
  4068ac:	8fa30004 	lw	v1,4(sp)
  4068b0:	8fa40008 	lw	a0,8(sp)
  4068b4:	00431021 	addu	v0,v0,v1
  4068b8:	00441023 	subu	v0,v0,a0
  4068bc:	00451021 	addu	v0,v0,a1
  4068c0:	afa20004 	sw	v0,4(sp)
  4068c4:	8fa30000 	lw	v1,0(sp)
  4068c8:	8fa20004 	lw	v0,4(sp)
  4068cc:	8fa40008 	lw	a0,8(sp)
  4068d0:	00621821 	addu	v1,v1,v0
  4068d4:	00641823 	subu	v1,v1,a0
  4068d8:	00651821 	addu	v1,v1,a1
  4068dc:	afa30000 	sw	v1,0(sp)
  4068e0:	8fa20000 	lw	v0,0(sp)
  4068e4:	8fa30004 	lw	v1,4(sp)
  4068e8:	8fa40008 	lw	a0,8(sp)
  4068ec:	00431021 	addu	v0,v0,v1
  4068f0:	00441023 	subu	v0,v0,a0
  4068f4:	00451021 	addu	v0,v0,a1
  4068f8:	24a50001 	addiu	a1,a1,1
  4068fc:	afa20008 	sw	v0,8(sp)
  406900:	14a6ffcd 	bne	a1,a2,406838 <func_16+0x378>
  406904:	00000000 	nop
  406908:	00002821 	move	a1,zero
  40690c:	24060002 	li	a2,2
  406910:	8fa20000 	lw	v0,0(sp)
  406914:	8fa30004 	lw	v1,4(sp)
  406918:	8fa40008 	lw	a0,8(sp)
  40691c:	00431021 	addu	v0,v0,v1
  406920:	00441023 	subu	v0,v0,a0
  406924:	00451021 	addu	v0,v0,a1
  406928:	afa20000 	sw	v0,0(sp)
  40692c:	8fa30000 	lw	v1,0(sp)
  406930:	8fa20004 	lw	v0,4(sp)
  406934:	8fa40008 	lw	a0,8(sp)
  406938:	00621821 	addu	v1,v1,v0
  40693c:	00641823 	subu	v1,v1,a0
  406940:	00651821 	addu	v1,v1,a1
  406944:	afa30008 	sw	v1,8(sp)
  406948:	8fa20000 	lw	v0,0(sp)
  40694c:	8fa30004 	lw	v1,4(sp)
  406950:	8fa40008 	lw	a0,8(sp)
  406954:	00431021 	addu	v0,v0,v1
  406958:	00441023 	subu	v0,v0,a0
  40695c:	00451021 	addu	v0,v0,a1
  406960:	afa20004 	sw	v0,4(sp)
  406964:	8fa30000 	lw	v1,0(sp)
  406968:	8fa20004 	lw	v0,4(sp)
  40696c:	8fa40008 	lw	a0,8(sp)
  406970:	00621821 	addu	v1,v1,v0
  406974:	00641823 	subu	v1,v1,a0
  406978:	00651821 	addu	v1,v1,a1
  40697c:	afa30000 	sw	v1,0(sp)
  406980:	8fa20000 	lw	v0,0(sp)
  406984:	8fa30004 	lw	v1,4(sp)
  406988:	8fa40008 	lw	a0,8(sp)
  40698c:	00431021 	addu	v0,v0,v1
  406990:	00441023 	subu	v0,v0,a0
  406994:	00451021 	addu	v0,v0,a1
  406998:	afa20008 	sw	v0,8(sp)
  40699c:	8fa30000 	lw	v1,0(sp)
  4069a0:	8fa20004 	lw	v0,4(sp)
  4069a4:	8fa40008 	lw	a0,8(sp)
  4069a8:	00621821 	addu	v1,v1,v0
  4069ac:	00641823 	subu	v1,v1,a0
  4069b0:	00651821 	addu	v1,v1,a1
  4069b4:	afa30004 	sw	v1,4(sp)
  4069b8:	8fa20000 	lw	v0,0(sp)
  4069bc:	8fa30004 	lw	v1,4(sp)
  4069c0:	8fa40008 	lw	a0,8(sp)
  4069c4:	00431021 	addu	v0,v0,v1
  4069c8:	00441023 	subu	v0,v0,a0
  4069cc:	00451021 	addu	v0,v0,a1
  4069d0:	afa20000 	sw	v0,0(sp)
  4069d4:	8fa30000 	lw	v1,0(sp)
  4069d8:	8fa20004 	lw	v0,4(sp)
  4069dc:	8fa40008 	lw	a0,8(sp)
  4069e0:	00621821 	addu	v1,v1,v0
  4069e4:	00641823 	subu	v1,v1,a0
  4069e8:	00651821 	addu	v1,v1,a1
  4069ec:	afa30004 	sw	v1,4(sp)
  4069f0:	8fa20000 	lw	v0,0(sp)
  4069f4:	8fa30004 	lw	v1,4(sp)
  4069f8:	8fa40008 	lw	a0,8(sp)
  4069fc:	00431021 	addu	v0,v0,v1
  406a00:	00441023 	subu	v0,v0,a0
  406a04:	00451021 	addu	v0,v0,a1
  406a08:	afa20000 	sw	v0,0(sp)
  406a0c:	8fa30000 	lw	v1,0(sp)
  406a10:	8fa20004 	lw	v0,4(sp)
  406a14:	8fa40008 	lw	a0,8(sp)
  406a18:	00621821 	addu	v1,v1,v0
  406a1c:	00641823 	subu	v1,v1,a0
  406a20:	00651821 	addu	v1,v1,a1
  406a24:	afa30008 	sw	v1,8(sp)
  406a28:	8fa20000 	lw	v0,0(sp)
  406a2c:	8fa30004 	lw	v1,4(sp)
  406a30:	8fa40008 	lw	a0,8(sp)
  406a34:	00431021 	addu	v0,v0,v1
  406a38:	00441023 	subu	v0,v0,a0
  406a3c:	00451021 	addu	v0,v0,a1
  406a40:	afa20004 	sw	v0,4(sp)
  406a44:	8fa30000 	lw	v1,0(sp)
  406a48:	8fa20004 	lw	v0,4(sp)
  406a4c:	8fa40008 	lw	a0,8(sp)
  406a50:	00621821 	addu	v1,v1,v0
  406a54:	00641823 	subu	v1,v1,a0
  406a58:	00651821 	addu	v1,v1,a1
  406a5c:	afa30000 	sw	v1,0(sp)
  406a60:	8fa20000 	lw	v0,0(sp)
  406a64:	8fa30004 	lw	v1,4(sp)
  406a68:	8fa40008 	lw	a0,8(sp)
  406a6c:	00431021 	addu	v0,v0,v1
  406a70:	00441023 	subu	v0,v0,a0
  406a74:	00451021 	addu	v0,v0,a1
  406a78:	afa20008 	sw	v0,8(sp)
  406a7c:	8fa30000 	lw	v1,0(sp)
  406a80:	8fa20004 	lw	v0,4(sp)
  406a84:	8fa40008 	lw	a0,8(sp)
  406a88:	00621821 	addu	v1,v1,v0
  406a8c:	00641823 	subu	v1,v1,a0
  406a90:	00651821 	addu	v1,v1,a1
  406a94:	afa30004 	sw	v1,4(sp)
  406a98:	8fa20000 	lw	v0,0(sp)
  406a9c:	8fa30004 	lw	v1,4(sp)
  406aa0:	8fa40008 	lw	a0,8(sp)
  406aa4:	00431021 	addu	v0,v0,v1
  406aa8:	00441023 	subu	v0,v0,a0
  406aac:	00451021 	addu	v0,v0,a1
  406ab0:	afa20000 	sw	v0,0(sp)
  406ab4:	8fa30000 	lw	v1,0(sp)
  406ab8:	8fa20004 	lw	v0,4(sp)
  406abc:	8fa40008 	lw	a0,8(sp)
  406ac0:	00621821 	addu	v1,v1,v0
  406ac4:	00641823 	subu	v1,v1,a0
  406ac8:	00651821 	addu	v1,v1,a1
  406acc:	24a50001 	addiu	a1,a1,1
  406ad0:	afa30004 	sw	v1,4(sp)
  406ad4:	14a6ff8e 	bne	a1,a2,406910 <func_16+0x450>
  406ad8:	00000000 	nop
  406adc:	8fa20000 	lw	v0,0(sp)
  406ae0:	8fa30004 	lw	v1,4(sp)
  406ae4:	8fa40008 	lw	a0,8(sp)
  406ae8:	00431021 	addu	v0,v0,v1
  406aec:	00441021 	addu	v0,v0,a0
  406af0:	03e00008 	jr	ra
  406af4:	27bd0010 	addiu	sp,sp,16

00406af8 <func_17>:
  406af8:	27bdfff0 	addiu	sp,sp,-16
  406afc:	2402000a 	li	v0,10
  406b00:	afa20000 	sw	v0,0(sp)
  406b04:	2403000b 	li	v1,11
  406b08:	2402000c 	li	v0,12
  406b0c:	afa30004 	sw	v1,4(sp)
  406b10:	00002821 	move	a1,zero
  406b14:	afa20008 	sw	v0,8(sp)
  406b18:	24060002 	li	a2,2
  406b1c:	8fa20000 	lw	v0,0(sp)
  406b20:	8fa30004 	lw	v1,4(sp)
  406b24:	8fa40008 	lw	a0,8(sp)
  406b28:	00431021 	addu	v0,v0,v1
  406b2c:	00441023 	subu	v0,v0,a0
  406b30:	00451021 	addu	v0,v0,a1
  406b34:	afa20000 	sw	v0,0(sp)
  406b38:	8fa30000 	lw	v1,0(sp)
  406b3c:	8fa20004 	lw	v0,4(sp)
  406b40:	8fa40008 	lw	a0,8(sp)
  406b44:	00621821 	addu	v1,v1,v0
  406b48:	00641823 	subu	v1,v1,a0
  406b4c:	00651821 	addu	v1,v1,a1
  406b50:	afa30004 	sw	v1,4(sp)
  406b54:	8fa20000 	lw	v0,0(sp)
  406b58:	8fa30004 	lw	v1,4(sp)
  406b5c:	8fa40008 	lw	a0,8(sp)
  406b60:	00431021 	addu	v0,v0,v1
  406b64:	00441023 	subu	v0,v0,a0
  406b68:	00451021 	addu	v0,v0,a1
  406b6c:	afa20008 	sw	v0,8(sp)
  406b70:	8fa30000 	lw	v1,0(sp)
  406b74:	8fa20004 	lw	v0,4(sp)
  406b78:	8fa40008 	lw	a0,8(sp)
  406b7c:	00621821 	addu	v1,v1,v0
  406b80:	00641823 	subu	v1,v1,a0
  406b84:	00651821 	addu	v1,v1,a1
  406b88:	afa30000 	sw	v1,0(sp)
  406b8c:	8fa20000 	lw	v0,0(sp)
  406b90:	8fa30004 	lw	v1,4(sp)
  406b94:	8fa40008 	lw	a0,8(sp)
  406b98:	00431021 	addu	v0,v0,v1
  406b9c:	00441023 	subu	v0,v0,a0
  406ba0:	00451021 	addu	v0,v0,a1
  406ba4:	afa20004 	sw	v0,4(sp)
  406ba8:	8fa30000 	lw	v1,0(sp)
  406bac:	8fa20004 	lw	v0,4(sp)
  406bb0:	8fa40008 	lw	a0,8(sp)
  406bb4:	00621821 	addu	v1,v1,v0
  406bb8:	00641823 	subu	v1,v1,a0
  406bbc:	00651821 	addu	v1,v1,a1
  406bc0:	afa30008 	sw	v1,8(sp)
  406bc4:	8fa20000 	lw	v0,0(sp)
  406bc8:	8fa30004 	lw	v1,4(sp)
  406bcc:	8fa40008 	lw	a0,8(sp)
  406bd0:	00431021 	addu	v0,v0,v1
  406bd4:	00441023 	subu	v0,v0,a0
  406bd8:	00451021 	addu	v0,v0,a1
  406bdc:	afa20000 	sw	v0,0(sp)
  406be0:	8fa30000 	lw	v1,0(sp)
  406be4:	8fa20004 	lw	v0,4(sp)
  406be8:	8fa40008 	lw	a0,8(sp)
  406bec:	00621821 	addu	v1,v1,v0
  406bf0:	00641823 	subu	v1,v1,a0
  406bf4:	00651821 	addu	v1,v1,a1
  406bf8:	afa30004 	sw	v1,4(sp)
  406bfc:	8fa20000 	lw	v0,0(sp)
  406c00:	8fa30004 	lw	v1,4(sp)
  406c04:	8fa40008 	lw	a0,8(sp)
  406c08:	00431021 	addu	v0,v0,v1
  406c0c:	00441023 	subu	v0,v0,a0
  406c10:	00451021 	addu	v0,v0,a1
  406c14:	afa20008 	sw	v0,8(sp)
  406c18:	8fa30000 	lw	v1,0(sp)
  406c1c:	8fa20004 	lw	v0,4(sp)
  406c20:	8fa40008 	lw	a0,8(sp)
  406c24:	00621821 	addu	v1,v1,v0
  406c28:	00641823 	subu	v1,v1,a0
  406c2c:	00651821 	addu	v1,v1,a1
  406c30:	afa30000 	sw	v1,0(sp)
  406c34:	8fa20000 	lw	v0,0(sp)
  406c38:	8fa30004 	lw	v1,4(sp)
  406c3c:	8fa40008 	lw	a0,8(sp)
  406c40:	00431021 	addu	v0,v0,v1
  406c44:	00441023 	subu	v0,v0,a0
  406c48:	00451021 	addu	v0,v0,a1
  406c4c:	afa20004 	sw	v0,4(sp)
  406c50:	8fa30000 	lw	v1,0(sp)
  406c54:	8fa20004 	lw	v0,4(sp)
  406c58:	8fa40008 	lw	a0,8(sp)
  406c5c:	00621821 	addu	v1,v1,v0
  406c60:	00641823 	subu	v1,v1,a0
  406c64:	00651821 	addu	v1,v1,a1
  406c68:	afa30008 	sw	v1,8(sp)
  406c6c:	8fa20000 	lw	v0,0(sp)
  406c70:	8fa30004 	lw	v1,4(sp)
  406c74:	8fa40008 	lw	a0,8(sp)
  406c78:	00431021 	addu	v0,v0,v1
  406c7c:	00441023 	subu	v0,v0,a0
  406c80:	00451021 	addu	v0,v0,a1
  406c84:	afa20000 	sw	v0,0(sp)
  406c88:	8fa30000 	lw	v1,0(sp)
  406c8c:	8fa20004 	lw	v0,4(sp)
  406c90:	8fa40008 	lw	a0,8(sp)
  406c94:	00621821 	addu	v1,v1,v0
  406c98:	00641823 	subu	v1,v1,a0
  406c9c:	00651821 	addu	v1,v1,a1
  406ca0:	afa30004 	sw	v1,4(sp)
  406ca4:	8fa20000 	lw	v0,0(sp)
  406ca8:	8fa30004 	lw	v1,4(sp)
  406cac:	8fa40008 	lw	a0,8(sp)
  406cb0:	00431021 	addu	v0,v0,v1
  406cb4:	00441023 	subu	v0,v0,a0
  406cb8:	00451021 	addu	v0,v0,a1
  406cbc:	afa20008 	sw	v0,8(sp)
  406cc0:	8fa30000 	lw	v1,0(sp)
  406cc4:	8fa20004 	lw	v0,4(sp)
  406cc8:	8fa40008 	lw	a0,8(sp)
  406ccc:	00621821 	addu	v1,v1,v0
  406cd0:	00641823 	subu	v1,v1,a0
  406cd4:	00651821 	addu	v1,v1,a1
  406cd8:	24a50001 	addiu	a1,a1,1
  406cdc:	afa30000 	sw	v1,0(sp)
  406ce0:	14a6ff8e 	bne	a1,a2,406b1c <func_17+0x24>
  406ce4:	00000000 	nop
  406ce8:	00002821 	move	a1,zero
  406cec:	24060002 	li	a2,2
  406cf0:	8fa20000 	lw	v0,0(sp)
  406cf4:	8fa30004 	lw	v1,4(sp)
  406cf8:	8fa40008 	lw	a0,8(sp)
  406cfc:	00431021 	addu	v0,v0,v1
  406d00:	00441023 	subu	v0,v0,a0
  406d04:	00451021 	addu	v0,v0,a1
  406d08:	afa20004 	sw	v0,4(sp)
  406d0c:	8fa30000 	lw	v1,0(sp)
  406d10:	8fa20004 	lw	v0,4(sp)
  406d14:	8fa40008 	lw	a0,8(sp)
  406d18:	00621821 	addu	v1,v1,v0
  406d1c:	00641823 	subu	v1,v1,a0
  406d20:	00651821 	addu	v1,v1,a1
  406d24:	afa30000 	sw	v1,0(sp)
  406d28:	8fa20000 	lw	v0,0(sp)
  406d2c:	8fa30004 	lw	v1,4(sp)
  406d30:	8fa40008 	lw	a0,8(sp)
  406d34:	00431021 	addu	v0,v0,v1
  406d38:	00441023 	subu	v0,v0,a0
  406d3c:	00451021 	addu	v0,v0,a1
  406d40:	afa20008 	sw	v0,8(sp)
  406d44:	8fa30000 	lw	v1,0(sp)
  406d48:	8fa20004 	lw	v0,4(sp)
  406d4c:	8fa40008 	lw	a0,8(sp)
  406d50:	00621821 	addu	v1,v1,v0
  406d54:	00641823 	subu	v1,v1,a0
  406d58:	00651821 	addu	v1,v1,a1
  406d5c:	afa30004 	sw	v1,4(sp)
  406d60:	8fa20000 	lw	v0,0(sp)
  406d64:	8fa30004 	lw	v1,4(sp)
  406d68:	8fa40008 	lw	a0,8(sp)
  406d6c:	00431021 	addu	v0,v0,v1
  406d70:	00441023 	subu	v0,v0,a0
  406d74:	00451021 	addu	v0,v0,a1
  406d78:	afa20004 	sw	v0,4(sp)
  406d7c:	8fa30000 	lw	v1,0(sp)
  406d80:	8fa20004 	lw	v0,4(sp)
  406d84:	8fa40008 	lw	a0,8(sp)
  406d88:	00621821 	addu	v1,v1,v0
  406d8c:	00641823 	subu	v1,v1,a0
  406d90:	00651821 	addu	v1,v1,a1
  406d94:	afa30000 	sw	v1,0(sp)
  406d98:	8fa20000 	lw	v0,0(sp)
  406d9c:	8fa30004 	lw	v1,4(sp)
  406da0:	8fa40008 	lw	a0,8(sp)
  406da4:	00431021 	addu	v0,v0,v1
  406da8:	00441023 	subu	v0,v0,a0
  406dac:	00451021 	addu	v0,v0,a1
  406db0:	afa20008 	sw	v0,8(sp)
  406db4:	8fa30000 	lw	v1,0(sp)
  406db8:	8fa20004 	lw	v0,4(sp)
  406dbc:	8fa40008 	lw	a0,8(sp)
  406dc0:	00621821 	addu	v1,v1,v0
  406dc4:	00641823 	subu	v1,v1,a0
  406dc8:	00651821 	addu	v1,v1,a1
  406dcc:	afa30004 	sw	v1,4(sp)
  406dd0:	8fa20000 	lw	v0,0(sp)
  406dd4:	8fa30004 	lw	v1,4(sp)
  406dd8:	8fa40008 	lw	a0,8(sp)
  406ddc:	00431021 	addu	v0,v0,v1
  406de0:	00441023 	subu	v0,v0,a0
  406de4:	00451021 	addu	v0,v0,a1
  406de8:	afa20000 	sw	v0,0(sp)
  406dec:	8fa30000 	lw	v1,0(sp)
  406df0:	8fa20004 	lw	v0,4(sp)
  406df4:	8fa40008 	lw	a0,8(sp)
  406df8:	00621821 	addu	v1,v1,v0
  406dfc:	00641823 	subu	v1,v1,a0
  406e00:	00651821 	addu	v1,v1,a1
  406e04:	afa30008 	sw	v1,8(sp)
  406e08:	8fa20000 	lw	v0,0(sp)
  406e0c:	8fa30004 	lw	v1,4(sp)
  406e10:	8fa40008 	lw	a0,8(sp)
  406e14:	00431021 	addu	v0,v0,v1
  406e18:	00441023 	subu	v0,v0,a0
  406e1c:	00451021 	addu	v0,v0,a1
  406e20:	afa20004 	sw	v0,4(sp)
  406e24:	8fa30000 	lw	v1,0(sp)
  406e28:	8fa20004 	lw	v0,4(sp)
  406e2c:	8fa40008 	lw	a0,8(sp)
  406e30:	00621821 	addu	v1,v1,v0
  406e34:	00641823 	subu	v1,v1,a0
  406e38:	00651821 	addu	v1,v1,a1
  406e3c:	afa30000 	sw	v1,0(sp)
  406e40:	8fa20000 	lw	v0,0(sp)
  406e44:	8fa30004 	lw	v1,4(sp)
  406e48:	8fa40008 	lw	a0,8(sp)
  406e4c:	00431021 	addu	v0,v0,v1
  406e50:	00441023 	subu	v0,v0,a0
  406e54:	00451021 	addu	v0,v0,a1
  406e58:	24a50001 	addiu	a1,a1,1
  406e5c:	afa20008 	sw	v0,8(sp)
  406e60:	14a6ffa3 	bne	a1,a2,406cf0 <func_17+0x1f8>
  406e64:	00000000 	nop
  406e68:	00002821 	move	a1,zero
  406e6c:	24060002 	li	a2,2
  406e70:	8fa20000 	lw	v0,0(sp)
  406e74:	8fa30004 	lw	v1,4(sp)
  406e78:	8fa40008 	lw	a0,8(sp)
  406e7c:	00431021 	addu	v0,v0,v1
  406e80:	00441023 	subu	v0,v0,a0
  406e84:	00451021 	addu	v0,v0,a1
  406e88:	afa20008 	sw	v0,8(sp)
  406e8c:	8fa30000 	lw	v1,0(sp)
  406e90:	8fa20004 	lw	v0,4(sp)
  406e94:	8fa40008 	lw	a0,8(sp)
  406e98:	00621821 	addu	v1,v1,v0
  406e9c:	00641823 	subu	v1,v1,a0
  406ea0:	00651821 	addu	v1,v1,a1
  406ea4:	afa30004 	sw	v1,4(sp)
  406ea8:	8fa20000 	lw	v0,0(sp)
  406eac:	8fa30004 	lw	v1,4(sp)
  406eb0:	8fa40008 	lw	a0,8(sp)
  406eb4:	00431021 	addu	v0,v0,v1
  406eb8:	00441023 	subu	v0,v0,a0
  406ebc:	00451021 	addu	v0,v0,a1
  406ec0:	afa20000 	sw	v0,0(sp)
  406ec4:	8fa30000 	lw	v1,0(sp)
  406ec8:	8fa20004 	lw	v0,4(sp)
  406ecc:	8fa40008 	lw	a0,8(sp)
  406ed0:	00621821 	addu	v1,v1,v0
  406ed4:	00641823 	subu	v1,v1,a0
  406ed8:	00651821 	addu	v1,v1,a1
  406edc:	afa30008 	sw	v1,8(sp)
  406ee0:	8fa20000 	lw	v0,0(sp)
  406ee4:	8fa30004 	lw	v1,4(sp)
  406ee8:	8fa40008 	lw	a0,8(sp)
  406eec:	00431021 	addu	v0,v0,v1
  406ef0:	00441023 	subu	v0,v0,a0
  406ef4:	00451021 	addu	v0,v0,a1
  406ef8:	afa20004 	sw	v0,4(sp)
  406efc:	8fa30000 	lw	v1,0(sp)
  406f00:	8fa20004 	lw	v0,4(sp)
  406f04:	8fa40008 	lw	a0,8(sp)
  406f08:	00621821 	addu	v1,v1,v0
  406f0c:	00641823 	subu	v1,v1,a0
  406f10:	00651821 	addu	v1,v1,a1
  406f14:	afa30000 	sw	v1,0(sp)
  406f18:	8fa20000 	lw	v0,0(sp)
  406f1c:	8fa30004 	lw	v1,4(sp)
  406f20:	8fa40008 	lw	a0,8(sp)
  406f24:	00431021 	addu	v0,v0,v1
  406f28:	00441023 	subu	v0,v0,a0
  406f2c:	00451021 	addu	v0,v0,a1
  406f30:	24a50001 	addiu	a1,a1,1
  406f34:	afa20008 	sw	v0,8(sp)
  406f38:	14a6ffcd 	bne	a1,a2,406e70 <func_17+0x378>
  406f3c:	00000000 	nop
  406f40:	00002821 	move	a1,zero
  406f44:	24060002 	li	a2,2
  406f48:	8fa20000 	lw	v0,0(sp)
  406f4c:	8fa30004 	lw	v1,4(sp)
  406f50:	8fa40008 	lw	a0,8(sp)
  406f54:	00431021 	addu	v0,v0,v1
  406f58:	00441023 	subu	v0,v0,a0
  406f5c:	00451021 	addu	v0,v0,a1
  406f60:	afa20000 	sw	v0,0(sp)
  406f64:	8fa30000 	lw	v1,0(sp)
  406f68:	8fa20004 	lw	v0,4(sp)
  406f6c:	8fa40008 	lw	a0,8(sp)
  406f70:	00621821 	addu	v1,v1,v0
  406f74:	00641823 	subu	v1,v1,a0
  406f78:	00651821 	addu	v1,v1,a1
  406f7c:	afa30008 	sw	v1,8(sp)
  406f80:	8fa20000 	lw	v0,0(sp)
  406f84:	8fa30004 	lw	v1,4(sp)
  406f88:	8fa40008 	lw	a0,8(sp)
  406f8c:	00431021 	addu	v0,v0,v1
  406f90:	00441023 	subu	v0,v0,a0
  406f94:	00451021 	addu	v0,v0,a1
  406f98:	afa20004 	sw	v0,4(sp)
  406f9c:	8fa30000 	lw	v1,0(sp)
  406fa0:	8fa20004 	lw	v0,4(sp)
  406fa4:	8fa40008 	lw	a0,8(sp)
  406fa8:	00621821 	addu	v1,v1,v0
  406fac:	00641823 	subu	v1,v1,a0
  406fb0:	00651821 	addu	v1,v1,a1
  406fb4:	afa30000 	sw	v1,0(sp)
  406fb8:	8fa20000 	lw	v0,0(sp)
  406fbc:	8fa30004 	lw	v1,4(sp)
  406fc0:	8fa40008 	lw	a0,8(sp)
  406fc4:	00431021 	addu	v0,v0,v1
  406fc8:	00441023 	subu	v0,v0,a0
  406fcc:	00451021 	addu	v0,v0,a1
  406fd0:	afa20008 	sw	v0,8(sp)
  406fd4:	8fa30000 	lw	v1,0(sp)
  406fd8:	8fa20004 	lw	v0,4(sp)
  406fdc:	8fa40008 	lw	a0,8(sp)
  406fe0:	00621821 	addu	v1,v1,v0
  406fe4:	00641823 	subu	v1,v1,a0
  406fe8:	00651821 	addu	v1,v1,a1
  406fec:	afa30004 	sw	v1,4(sp)
  406ff0:	8fa20000 	lw	v0,0(sp)
  406ff4:	8fa30004 	lw	v1,4(sp)
  406ff8:	8fa40008 	lw	a0,8(sp)
  406ffc:	00431021 	addu	v0,v0,v1
  407000:	00441023 	subu	v0,v0,a0
  407004:	00451021 	addu	v0,v0,a1
  407008:	afa20000 	sw	v0,0(sp)
  40700c:	8fa30000 	lw	v1,0(sp)
  407010:	8fa20004 	lw	v0,4(sp)
  407014:	8fa40008 	lw	a0,8(sp)
  407018:	00621821 	addu	v1,v1,v0
  40701c:	00641823 	subu	v1,v1,a0
  407020:	00651821 	addu	v1,v1,a1
  407024:	afa30004 	sw	v1,4(sp)
  407028:	8fa20000 	lw	v0,0(sp)
  40702c:	8fa30004 	lw	v1,4(sp)
  407030:	8fa40008 	lw	a0,8(sp)
  407034:	00431021 	addu	v0,v0,v1
  407038:	00441023 	subu	v0,v0,a0
  40703c:	00451021 	addu	v0,v0,a1
  407040:	afa20000 	sw	v0,0(sp)
  407044:	8fa30000 	lw	v1,0(sp)
  407048:	8fa20004 	lw	v0,4(sp)
  40704c:	8fa40008 	lw	a0,8(sp)
  407050:	00621821 	addu	v1,v1,v0
  407054:	00641823 	subu	v1,v1,a0
  407058:	00651821 	addu	v1,v1,a1
  40705c:	afa30008 	sw	v1,8(sp)
  407060:	8fa20000 	lw	v0,0(sp)
  407064:	8fa30004 	lw	v1,4(sp)
  407068:	8fa40008 	lw	a0,8(sp)
  40706c:	00431021 	addu	v0,v0,v1
  407070:	00441023 	subu	v0,v0,a0
  407074:	00451021 	addu	v0,v0,a1
  407078:	afa20004 	sw	v0,4(sp)
  40707c:	8fa30000 	lw	v1,0(sp)
  407080:	8fa20004 	lw	v0,4(sp)
  407084:	8fa40008 	lw	a0,8(sp)
  407088:	00621821 	addu	v1,v1,v0
  40708c:	00641823 	subu	v1,v1,a0
  407090:	00651821 	addu	v1,v1,a1
  407094:	afa30000 	sw	v1,0(sp)
  407098:	8fa20000 	lw	v0,0(sp)
  40709c:	8fa30004 	lw	v1,4(sp)
  4070a0:	8fa40008 	lw	a0,8(sp)
  4070a4:	00431021 	addu	v0,v0,v1
  4070a8:	00441023 	subu	v0,v0,a0
  4070ac:	00451021 	addu	v0,v0,a1
  4070b0:	afa20008 	sw	v0,8(sp)
  4070b4:	8fa30000 	lw	v1,0(sp)
  4070b8:	8fa20004 	lw	v0,4(sp)
  4070bc:	8fa40008 	lw	a0,8(sp)
  4070c0:	00621821 	addu	v1,v1,v0
  4070c4:	00641823 	subu	v1,v1,a0
  4070c8:	00651821 	addu	v1,v1,a1
  4070cc:	afa30004 	sw	v1,4(sp)
  4070d0:	8fa20000 	lw	v0,0(sp)
  4070d4:	8fa30004 	lw	v1,4(sp)
  4070d8:	8fa40008 	lw	a0,8(sp)
  4070dc:	00431021 	addu	v0,v0,v1
  4070e0:	00441023 	subu	v0,v0,a0
  4070e4:	00451021 	addu	v0,v0,a1
  4070e8:	afa20000 	sw	v0,0(sp)
  4070ec:	8fa30000 	lw	v1,0(sp)
  4070f0:	8fa20004 	lw	v0,4(sp)
  4070f4:	8fa40008 	lw	a0,8(sp)
  4070f8:	00621821 	addu	v1,v1,v0
  4070fc:	00641823 	subu	v1,v1,a0
  407100:	00651821 	addu	v1,v1,a1
  407104:	24a50001 	addiu	a1,a1,1
  407108:	afa30004 	sw	v1,4(sp)
  40710c:	14a6ff8e 	bne	a1,a2,406f48 <func_17+0x450>
  407110:	00000000 	nop
  407114:	8fa20000 	lw	v0,0(sp)
  407118:	8fa30004 	lw	v1,4(sp)
  40711c:	8fa40008 	lw	a0,8(sp)
  407120:	00431021 	addu	v0,v0,v1
  407124:	00441021 	addu	v0,v0,a0
  407128:	03e00008 	jr	ra
  40712c:	27bd0010 	addiu	sp,sp,16

00407130 <func_18>:
  407130:	27bdfff0 	addiu	sp,sp,-16
  407134:	2402000a 	li	v0,10
  407138:	afa20000 	sw	v0,0(sp)
  40713c:	2403000b 	li	v1,11
  407140:	2402000c 	li	v0,12
  407144:	afa30004 	sw	v1,4(sp)
  407148:	00002821 	move	a1,zero
  40714c:	afa20008 	sw	v0,8(sp)
  407150:	24060002 	li	a2,2
  407154:	8fa20000 	lw	v0,0(sp)
  407158:	8fa30004 	lw	v1,4(sp)
  40715c:	8fa40008 	lw	a0,8(sp)
  407160:	00431021 	addu	v0,v0,v1
  407164:	00441023 	subu	v0,v0,a0
  407168:	00451021 	addu	v0,v0,a1
  40716c:	afa20000 	sw	v0,0(sp)
  407170:	8fa30000 	lw	v1,0(sp)
  407174:	8fa20004 	lw	v0,4(sp)
  407178:	8fa40008 	lw	a0,8(sp)
  40717c:	00621821 	addu	v1,v1,v0
  407180:	00641823 	subu	v1,v1,a0
  407184:	00651821 	addu	v1,v1,a1
  407188:	afa30004 	sw	v1,4(sp)
  40718c:	8fa20000 	lw	v0,0(sp)
  407190:	8fa30004 	lw	v1,4(sp)
  407194:	8fa40008 	lw	a0,8(sp)
  407198:	00431021 	addu	v0,v0,v1
  40719c:	00441023 	subu	v0,v0,a0
  4071a0:	00451021 	addu	v0,v0,a1
  4071a4:	afa20008 	sw	v0,8(sp)
  4071a8:	8fa30000 	lw	v1,0(sp)
  4071ac:	8fa20004 	lw	v0,4(sp)
  4071b0:	8fa40008 	lw	a0,8(sp)
  4071b4:	00621821 	addu	v1,v1,v0
  4071b8:	00641823 	subu	v1,v1,a0
  4071bc:	00651821 	addu	v1,v1,a1
  4071c0:	afa30000 	sw	v1,0(sp)
  4071c4:	8fa20000 	lw	v0,0(sp)
  4071c8:	8fa30004 	lw	v1,4(sp)
  4071cc:	8fa40008 	lw	a0,8(sp)
  4071d0:	00431021 	addu	v0,v0,v1
  4071d4:	00441023 	subu	v0,v0,a0
  4071d8:	00451021 	addu	v0,v0,a1
  4071dc:	afa20004 	sw	v0,4(sp)
  4071e0:	8fa30000 	lw	v1,0(sp)
  4071e4:	8fa20004 	lw	v0,4(sp)
  4071e8:	8fa40008 	lw	a0,8(sp)
  4071ec:	00621821 	addu	v1,v1,v0
  4071f0:	00641823 	subu	v1,v1,a0
  4071f4:	00651821 	addu	v1,v1,a1
  4071f8:	afa30008 	sw	v1,8(sp)
  4071fc:	8fa20000 	lw	v0,0(sp)
  407200:	8fa30004 	lw	v1,4(sp)
  407204:	8fa40008 	lw	a0,8(sp)
  407208:	00431021 	addu	v0,v0,v1
  40720c:	00441023 	subu	v0,v0,a0
  407210:	00451021 	addu	v0,v0,a1
  407214:	afa20000 	sw	v0,0(sp)
  407218:	8fa30000 	lw	v1,0(sp)
  40721c:	8fa20004 	lw	v0,4(sp)
  407220:	8fa40008 	lw	a0,8(sp)
  407224:	00621821 	addu	v1,v1,v0
  407228:	00641823 	subu	v1,v1,a0
  40722c:	00651821 	addu	v1,v1,a1
  407230:	afa30004 	sw	v1,4(sp)
  407234:	8fa20000 	lw	v0,0(sp)
  407238:	8fa30004 	lw	v1,4(sp)
  40723c:	8fa40008 	lw	a0,8(sp)
  407240:	00431021 	addu	v0,v0,v1
  407244:	00441023 	subu	v0,v0,a0
  407248:	00451021 	addu	v0,v0,a1
  40724c:	afa20008 	sw	v0,8(sp)
  407250:	8fa30000 	lw	v1,0(sp)
  407254:	8fa20004 	lw	v0,4(sp)
  407258:	8fa40008 	lw	a0,8(sp)
  40725c:	00621821 	addu	v1,v1,v0
  407260:	00641823 	subu	v1,v1,a0
  407264:	00651821 	addu	v1,v1,a1
  407268:	afa30000 	sw	v1,0(sp)
  40726c:	8fa20000 	lw	v0,0(sp)
  407270:	8fa30004 	lw	v1,4(sp)
  407274:	8fa40008 	lw	a0,8(sp)
  407278:	00431021 	addu	v0,v0,v1
  40727c:	00441023 	subu	v0,v0,a0
  407280:	00451021 	addu	v0,v0,a1
  407284:	afa20004 	sw	v0,4(sp)
  407288:	8fa30000 	lw	v1,0(sp)
  40728c:	8fa20004 	lw	v0,4(sp)
  407290:	8fa40008 	lw	a0,8(sp)
  407294:	00621821 	addu	v1,v1,v0
  407298:	00641823 	subu	v1,v1,a0
  40729c:	00651821 	addu	v1,v1,a1
  4072a0:	afa30008 	sw	v1,8(sp)
  4072a4:	8fa20000 	lw	v0,0(sp)
  4072a8:	8fa30004 	lw	v1,4(sp)
  4072ac:	8fa40008 	lw	a0,8(sp)
  4072b0:	00431021 	addu	v0,v0,v1
  4072b4:	00441023 	subu	v0,v0,a0
  4072b8:	00451021 	addu	v0,v0,a1
  4072bc:	afa20000 	sw	v0,0(sp)
  4072c0:	8fa30000 	lw	v1,0(sp)
  4072c4:	8fa20004 	lw	v0,4(sp)
  4072c8:	8fa40008 	lw	a0,8(sp)
  4072cc:	00621821 	addu	v1,v1,v0
  4072d0:	00641823 	subu	v1,v1,a0
  4072d4:	00651821 	addu	v1,v1,a1
  4072d8:	afa30004 	sw	v1,4(sp)
  4072dc:	8fa20000 	lw	v0,0(sp)
  4072e0:	8fa30004 	lw	v1,4(sp)
  4072e4:	8fa40008 	lw	a0,8(sp)
  4072e8:	00431021 	addu	v0,v0,v1
  4072ec:	00441023 	subu	v0,v0,a0
  4072f0:	00451021 	addu	v0,v0,a1
  4072f4:	afa20008 	sw	v0,8(sp)
  4072f8:	8fa30000 	lw	v1,0(sp)
  4072fc:	8fa20004 	lw	v0,4(sp)
  407300:	8fa40008 	lw	a0,8(sp)
  407304:	00621821 	addu	v1,v1,v0
  407308:	00641823 	subu	v1,v1,a0
  40730c:	00651821 	addu	v1,v1,a1
  407310:	24a50001 	addiu	a1,a1,1
  407314:	afa30000 	sw	v1,0(sp)
  407318:	14a6ff8e 	bne	a1,a2,407154 <func_18+0x24>
  40731c:	00000000 	nop
  407320:	00002821 	move	a1,zero
  407324:	24060002 	li	a2,2
  407328:	8fa20000 	lw	v0,0(sp)
  40732c:	8fa30004 	lw	v1,4(sp)
  407330:	8fa40008 	lw	a0,8(sp)
  407334:	00431021 	addu	v0,v0,v1
  407338:	00441023 	subu	v0,v0,a0
  40733c:	00451021 	addu	v0,v0,a1
  407340:	afa20004 	sw	v0,4(sp)
  407344:	8fa30000 	lw	v1,0(sp)
  407348:	8fa20004 	lw	v0,4(sp)
  40734c:	8fa40008 	lw	a0,8(sp)
  407350:	00621821 	addu	v1,v1,v0
  407354:	00641823 	subu	v1,v1,a0
  407358:	00651821 	addu	v1,v1,a1
  40735c:	afa30000 	sw	v1,0(sp)
  407360:	8fa20000 	lw	v0,0(sp)
  407364:	8fa30004 	lw	v1,4(sp)
  407368:	8fa40008 	lw	a0,8(sp)
  40736c:	00431021 	addu	v0,v0,v1
  407370:	00441023 	subu	v0,v0,a0
  407374:	00451021 	addu	v0,v0,a1
  407378:	afa20008 	sw	v0,8(sp)
  40737c:	8fa30000 	lw	v1,0(sp)
  407380:	8fa20004 	lw	v0,4(sp)
  407384:	8fa40008 	lw	a0,8(sp)
  407388:	00621821 	addu	v1,v1,v0
  40738c:	00641823 	subu	v1,v1,a0
  407390:	00651821 	addu	v1,v1,a1
  407394:	afa30004 	sw	v1,4(sp)
  407398:	8fa20000 	lw	v0,0(sp)
  40739c:	8fa30004 	lw	v1,4(sp)
  4073a0:	8fa40008 	lw	a0,8(sp)
  4073a4:	00431021 	addu	v0,v0,v1
  4073a8:	00441023 	subu	v0,v0,a0
  4073ac:	00451021 	addu	v0,v0,a1
  4073b0:	afa20004 	sw	v0,4(sp)
  4073b4:	8fa30000 	lw	v1,0(sp)
  4073b8:	8fa20004 	lw	v0,4(sp)
  4073bc:	8fa40008 	lw	a0,8(sp)
  4073c0:	00621821 	addu	v1,v1,v0
  4073c4:	00641823 	subu	v1,v1,a0
  4073c8:	00651821 	addu	v1,v1,a1
  4073cc:	afa30000 	sw	v1,0(sp)
  4073d0:	8fa20000 	lw	v0,0(sp)
  4073d4:	8fa30004 	lw	v1,4(sp)
  4073d8:	8fa40008 	lw	a0,8(sp)
  4073dc:	00431021 	addu	v0,v0,v1
  4073e0:	00441023 	subu	v0,v0,a0
  4073e4:	00451021 	addu	v0,v0,a1
  4073e8:	afa20008 	sw	v0,8(sp)
  4073ec:	8fa30000 	lw	v1,0(sp)
  4073f0:	8fa20004 	lw	v0,4(sp)
  4073f4:	8fa40008 	lw	a0,8(sp)
  4073f8:	00621821 	addu	v1,v1,v0
  4073fc:	00641823 	subu	v1,v1,a0
  407400:	00651821 	addu	v1,v1,a1
  407404:	afa30004 	sw	v1,4(sp)
  407408:	8fa20000 	lw	v0,0(sp)
  40740c:	8fa30004 	lw	v1,4(sp)
  407410:	8fa40008 	lw	a0,8(sp)
  407414:	00431021 	addu	v0,v0,v1
  407418:	00441023 	subu	v0,v0,a0
  40741c:	00451021 	addu	v0,v0,a1
  407420:	afa20000 	sw	v0,0(sp)
  407424:	8fa30000 	lw	v1,0(sp)
  407428:	8fa20004 	lw	v0,4(sp)
  40742c:	8fa40008 	lw	a0,8(sp)
  407430:	00621821 	addu	v1,v1,v0
  407434:	00641823 	subu	v1,v1,a0
  407438:	00651821 	addu	v1,v1,a1
  40743c:	afa30008 	sw	v1,8(sp)
  407440:	8fa20000 	lw	v0,0(sp)
  407444:	8fa30004 	lw	v1,4(sp)
  407448:	8fa40008 	lw	a0,8(sp)
  40744c:	00431021 	addu	v0,v0,v1
  407450:	00441023 	subu	v0,v0,a0
  407454:	00451021 	addu	v0,v0,a1
  407458:	afa20004 	sw	v0,4(sp)
  40745c:	8fa30000 	lw	v1,0(sp)
  407460:	8fa20004 	lw	v0,4(sp)
  407464:	8fa40008 	lw	a0,8(sp)
  407468:	00621821 	addu	v1,v1,v0
  40746c:	00641823 	subu	v1,v1,a0
  407470:	00651821 	addu	v1,v1,a1
  407474:	afa30000 	sw	v1,0(sp)
  407478:	8fa20000 	lw	v0,0(sp)
  40747c:	8fa30004 	lw	v1,4(sp)
  407480:	8fa40008 	lw	a0,8(sp)
  407484:	00431021 	addu	v0,v0,v1
  407488:	00441023 	subu	v0,v0,a0
  40748c:	00451021 	addu	v0,v0,a1
  407490:	24a50001 	addiu	a1,a1,1
  407494:	afa20008 	sw	v0,8(sp)
  407498:	14a6ffa3 	bne	a1,a2,407328 <func_18+0x1f8>
  40749c:	00000000 	nop
  4074a0:	00002821 	move	a1,zero
  4074a4:	24060002 	li	a2,2
  4074a8:	8fa20000 	lw	v0,0(sp)
  4074ac:	8fa30004 	lw	v1,4(sp)
  4074b0:	8fa40008 	lw	a0,8(sp)
  4074b4:	00431021 	addu	v0,v0,v1
  4074b8:	00441023 	subu	v0,v0,a0
  4074bc:	00451021 	addu	v0,v0,a1
  4074c0:	afa20008 	sw	v0,8(sp)
  4074c4:	8fa30000 	lw	v1,0(sp)
  4074c8:	8fa20004 	lw	v0,4(sp)
  4074cc:	8fa40008 	lw	a0,8(sp)
  4074d0:	00621821 	addu	v1,v1,v0
  4074d4:	00641823 	subu	v1,v1,a0
  4074d8:	00651821 	addu	v1,v1,a1
  4074dc:	afa30004 	sw	v1,4(sp)
  4074e0:	8fa20000 	lw	v0,0(sp)
  4074e4:	8fa30004 	lw	v1,4(sp)
  4074e8:	8fa40008 	lw	a0,8(sp)
  4074ec:	00431021 	addu	v0,v0,v1
  4074f0:	00441023 	subu	v0,v0,a0
  4074f4:	00451021 	addu	v0,v0,a1
  4074f8:	afa20000 	sw	v0,0(sp)
  4074fc:	8fa30000 	lw	v1,0(sp)
  407500:	8fa20004 	lw	v0,4(sp)
  407504:	8fa40008 	lw	a0,8(sp)
  407508:	00621821 	addu	v1,v1,v0
  40750c:	00641823 	subu	v1,v1,a0
  407510:	00651821 	addu	v1,v1,a1
  407514:	afa30008 	sw	v1,8(sp)
  407518:	8fa20000 	lw	v0,0(sp)
  40751c:	8fa30004 	lw	v1,4(sp)
  407520:	8fa40008 	lw	a0,8(sp)
  407524:	00431021 	addu	v0,v0,v1
  407528:	00441023 	subu	v0,v0,a0
  40752c:	00451021 	addu	v0,v0,a1
  407530:	afa20004 	sw	v0,4(sp)
  407534:	8fa30000 	lw	v1,0(sp)
  407538:	8fa20004 	lw	v0,4(sp)
  40753c:	8fa40008 	lw	a0,8(sp)
  407540:	00621821 	addu	v1,v1,v0
  407544:	00641823 	subu	v1,v1,a0
  407548:	00651821 	addu	v1,v1,a1
  40754c:	afa30000 	sw	v1,0(sp)
  407550:	8fa20000 	lw	v0,0(sp)
  407554:	8fa30004 	lw	v1,4(sp)
  407558:	8fa40008 	lw	a0,8(sp)
  40755c:	00431021 	addu	v0,v0,v1
  407560:	00441023 	subu	v0,v0,a0
  407564:	00451021 	addu	v0,v0,a1
  407568:	24a50001 	addiu	a1,a1,1
  40756c:	afa20008 	sw	v0,8(sp)
  407570:	14a6ffcd 	bne	a1,a2,4074a8 <func_18+0x378>
  407574:	00000000 	nop
  407578:	00002821 	move	a1,zero
  40757c:	24060002 	li	a2,2
  407580:	8fa20000 	lw	v0,0(sp)
  407584:	8fa30004 	lw	v1,4(sp)
  407588:	8fa40008 	lw	a0,8(sp)
  40758c:	00431021 	addu	v0,v0,v1
  407590:	00441023 	subu	v0,v0,a0
  407594:	00451021 	addu	v0,v0,a1
  407598:	afa20000 	sw	v0,0(sp)
  40759c:	8fa30000 	lw	v1,0(sp)
  4075a0:	8fa20004 	lw	v0,4(sp)
  4075a4:	8fa40008 	lw	a0,8(sp)
  4075a8:	00621821 	addu	v1,v1,v0
  4075ac:	00641823 	subu	v1,v1,a0
  4075b0:	00651821 	addu	v1,v1,a1
  4075b4:	afa30008 	sw	v1,8(sp)
  4075b8:	8fa20000 	lw	v0,0(sp)
  4075bc:	8fa30004 	lw	v1,4(sp)
  4075c0:	8fa40008 	lw	a0,8(sp)
  4075c4:	00431021 	addu	v0,v0,v1
  4075c8:	00441023 	subu	v0,v0,a0
  4075cc:	00451021 	addu	v0,v0,a1
  4075d0:	afa20004 	sw	v0,4(sp)
  4075d4:	8fa30000 	lw	v1,0(sp)
  4075d8:	8fa20004 	lw	v0,4(sp)
  4075dc:	8fa40008 	lw	a0,8(sp)
  4075e0:	00621821 	addu	v1,v1,v0
  4075e4:	00641823 	subu	v1,v1,a0
  4075e8:	00651821 	addu	v1,v1,a1
  4075ec:	afa30000 	sw	v1,0(sp)
  4075f0:	8fa20000 	lw	v0,0(sp)
  4075f4:	8fa30004 	lw	v1,4(sp)
  4075f8:	8fa40008 	lw	a0,8(sp)
  4075fc:	00431021 	addu	v0,v0,v1
  407600:	00441023 	subu	v0,v0,a0
  407604:	00451021 	addu	v0,v0,a1
  407608:	afa20008 	sw	v0,8(sp)
  40760c:	8fa30000 	lw	v1,0(sp)
  407610:	8fa20004 	lw	v0,4(sp)
  407614:	8fa40008 	lw	a0,8(sp)
  407618:	00621821 	addu	v1,v1,v0
  40761c:	00641823 	subu	v1,v1,a0
  407620:	00651821 	addu	v1,v1,a1
  407624:	afa30004 	sw	v1,4(sp)
  407628:	8fa20000 	lw	v0,0(sp)
  40762c:	8fa30004 	lw	v1,4(sp)
  407630:	8fa40008 	lw	a0,8(sp)
  407634:	00431021 	addu	v0,v0,v1
  407638:	00441023 	subu	v0,v0,a0
  40763c:	00451021 	addu	v0,v0,a1
  407640:	afa20000 	sw	v0,0(sp)
  407644:	8fa30000 	lw	v1,0(sp)
  407648:	8fa20004 	lw	v0,4(sp)
  40764c:	8fa40008 	lw	a0,8(sp)
  407650:	00621821 	addu	v1,v1,v0
  407654:	00641823 	subu	v1,v1,a0
  407658:	00651821 	addu	v1,v1,a1
  40765c:	afa30004 	sw	v1,4(sp)
  407660:	8fa20000 	lw	v0,0(sp)
  407664:	8fa30004 	lw	v1,4(sp)
  407668:	8fa40008 	lw	a0,8(sp)
  40766c:	00431021 	addu	v0,v0,v1
  407670:	00441023 	subu	v0,v0,a0
  407674:	00451021 	addu	v0,v0,a1
  407678:	afa20000 	sw	v0,0(sp)
